

Microchip Technology PIC LITE Macro Assembler V2.00 build -1524193055 
                                                                                               Tue Mar 15 13:27:26 2022

Microchip Technology Omniscient Code Generator v2.00 (Free mode) build 20180527130849
     1  0000                     
      + 0000                     
     2                           ; Version 2.00
     3                           ; Generated 27/05/2018 GMT
     4                           
     5                           ; 
     6                           ; Copyright © 2018, Microchip Technology Inc. and its subsidiaries ("Microchip")
     7                           ; All rights reserved.
     8                           ; 
     9                           ; This software is developed by Microchip Technology Inc. and its subsidiaries ("Microch
                                 ip").
    10                           ; 
    11                           ; Redistribution and use in source and binary forms, with or without modification, are
    12                           ; permitted provided that the following conditions are met:
    13                           ; 
    14                           ;     1. Redistributions of source code must retain the above copyright notice, this lis
                                 t of
    15                           ;        conditions and the following disclaimer.
    16                           ; 
    17                           ;     2. Redistributions in binary form must reproduce the above copyright notice, this 
                                 list
    18                           ;        of conditions and the following disclaimer in the documentation and/or other
    19                           ;        materials provided with the distribution.
    20                           ; 
    21                           ;     3. Microchip's name may not be used to endorse or promote products derived from th
                                 is
    22                           ;        software without specific prior written permission.
    23                           ; 
    24                           ; THIS SOFTWARE IS PROVIDED BY MICROCHIP "AS IS" AND ANY EXPRESS OR IMPLIED WARRANTIES,

    25                           ; INCLUDING, BUT NOT LIMITED TO, THE IMPLIED WARRANTIES OF MERCHANTABILITY AND FITNESS F
                                 OR
    26                           ; PURPOSE ARE DISCLAIMED.  IN NO EVENT SHALL MICROCHIP BE LIABLE FOR ANY DIRECT, INDIREC
                                 T,
    27                           ; INCIDENTAL, SPECIAL, EXEMPLARY, OR CONSEQUENTIAL DAMAGES (INCLUDING BUT NOT LIMITED TO
                                 
    28                           ; PROCUREMENT OF SUBSTITUTE GOODS OR SERVICES; LOSS OF USE, DATA OR PROFITS; OR BUSINESS
                                 
    29                           ; INTERRUPTION) HOWSOEVER CAUSED AND ON ANY THEORY OF LIABILITY, WHETHER IN CONTRACT, ST
                                 RICT
    30                           ; LIABILITY, OR TORT (INCLUDING NEGLIGENCE OR OTHERWISE) ARISING IN ANY WAY OUT OF THE U
                                 SE OF
    31                           ; THIS SOFTWARE, EVEN IF ADVISED OF THE POSSIBILITY OF SUCH DAMAGE.
    32                           ; 
    33                           
    34                           
    35                           ; 
    36                           ; Code-generator required, PIC16F887 Definitions
    37                           ; 
    38  0004                     fsr0 equ 04h
    39  0004                     indf equ 00h
    40  0000                     indf0 equ 00h
    41  0000                     pc equ 02h
    42  0002                     pcl equ 02h
    43  0002                     pclath equ 0Ah
    44  000A                     status equ 03h
    45  0003                     
     2                           opt pagewidth 120
     3  0000                     byte0	macro	val
     4                           	(getbyte(val,0))
     5                           endm
     6  0000                     byte1	macro	val
     7                           	(getbyte(val,1))
     8                           endm
     9  0000                     byte2	macro	val
    10                           	(getbyte(val,2))
    11                           endm
    12  0000                     byte3	macro	val
    13                           	(getbyte(val,3))
    14                           endm
    15  0000                     byte4	macro	val
    16                           	(getbyte(val,4))
    17                           endm
    18  0000                     byte5	macro	val
    19                           	(getbyte(val,5))
    20                           endm
    21  0000                     byte6	macro	val
    22                           	(getbyte(val,6))
    23                           endm
    24  0000                     byte7	macro	val
    25                           	(getbyte(val,7))
    26                           endm
    27  0000                     getword	macro	val,pos
    28                           	(((val) >> (8 * pos)) and 0xffff)
    29                           endm
    30  0000                     word0	macro	val
    31                           	(getword(val,0))
    32                           endm
    33  0000                     word1	macro	val
    34                           	(getword(val,2))
    35                           endm
    36  0000                     word2	macro	val
    37                           	(getword(val,4))
    38                           endm
    39  0000                     word3	macro	val
    40                           	(getword(val,6))
    41                           endm
    42  0000                     gettword	macro	val,pos
    43                           	(((val) >> (8 * pos)) and 0xffffff)
    44                           endm
    45  0000                     tword0	macro	val
    46                           	(gettword(val,0))
    47                           endm
    48  0000                     tword1	macro	val
    49                           	(gettword(val,3))
    50                           endm
    51  0000                     tword2	macro	val
    52                           	(gettword(val,6))
    53                           endm
    54  0000                     getdword	macro	val,pos
    55                           	(((val) >> (8 * pos)) and 0xffffffff)
    56                           endm
    57  0000                     dword0	macro	val
    58                           	(getdword(val,0))
    59                           endm
    60  0000                     dword1	macro	val
    61                           	(getdword(val,4))
    62                           endm
    63  0000                     clrc	macro
    64                           	bcf	3,0
    65                           	endm
    66  0000                     clrz	macro
    67                           	bcf	3,2
    68                           	endm
    69  0000                     setc	macro
    70                           	bsf	3,0
    71                           	endm
    72  0000                     setz	macro
    73                           	bsf	3,2
    74                           	endm
    75  0000                     skipc	macro
    76                           	btfss	3,0
    77                           	endm
    78  0000                     skipz	macro
    79                           	btfss	3,2
    80                           	endm
    81  0000                     skipnc	macro
    82                           	btfsc	3,0
    83                           	endm
    84  0000                     skipnz	macro
    85                           	btfsc	3,2
    86                           	endm
    87  0000                     # 54 "C:\Program Files (x86)\Microchip\xc8\v2.00\pic\include\pic16f887.h"
    88                           INDF equ 00h ;# 
    89  0000                     # 61 "C:\Program Files (x86)\Microchip\xc8\v2.00\pic\include\pic16f887.h"
    90                           TMR0 equ 01h ;# 
    91  0001                     # 68 "C:\Program Files (x86)\Microchip\xc8\v2.00\pic\include\pic16f887.h"
    92                           PCL equ 02h ;# 
    93  0002                     # 75 "C:\Program Files (x86)\Microchip\xc8\v2.00\pic\include\pic16f887.h"
    94                           STATUS equ 03h ;# 
    95  0003                     # 161 "C:\Program Files (x86)\Microchip\xc8\v2.00\pic\include\pic16f887.h"
    96                           FSR equ 04h ;# 
    97  0004                     # 168 "C:\Program Files (x86)\Microchip\xc8\v2.00\pic\include\pic16f887.h"
    98                           PORTA equ 05h ;# 
    99  0005                     # 230 "C:\Program Files (x86)\Microchip\xc8\v2.00\pic\include\pic16f887.h"
   100                           PORTB equ 06h ;# 
   101  0006                     # 292 "C:\Program Files (x86)\Microchip\xc8\v2.00\pic\include\pic16f887.h"
   102                           PORTC equ 07h ;# 
   103  0007                     # 354 "C:\Program Files (x86)\Microchip\xc8\v2.00\pic\include\pic16f887.h"
   104                           PORTD equ 08h ;# 
   105  0008                     # 416 "C:\Program Files (x86)\Microchip\xc8\v2.00\pic\include\pic16f887.h"
   106                           PORTE equ 09h ;# 
   107  0009                     # 454 "C:\Program Files (x86)\Microchip\xc8\v2.00\pic\include\pic16f887.h"
   108                           PCLATH equ 0Ah ;# 
   109  000A                     # 461 "C:\Program Files (x86)\Microchip\xc8\v2.00\pic\include\pic16f887.h"
   110                           INTCON equ 0Bh ;# 
   111  000B                     # 539 "C:\Program Files (x86)\Microchip\xc8\v2.00\pic\include\pic16f887.h"
   112                           PIR1 equ 0Ch ;# 
   113  000C                     # 595 "C:\Program Files (x86)\Microchip\xc8\v2.00\pic\include\pic16f887.h"
   114                           PIR2 equ 0Dh ;# 
   115  000D                     # 652 "C:\Program Files (x86)\Microchip\xc8\v2.00\pic\include\pic16f887.h"
   116                           TMR1 equ 0Eh ;# 
   117  000E                     # 659 "C:\Program Files (x86)\Microchip\xc8\v2.00\pic\include\pic16f887.h"
   118                           TMR1L equ 0Eh ;# 
   119  000E                     # 666 "C:\Program Files (x86)\Microchip\xc8\v2.00\pic\include\pic16f887.h"
   120                           TMR1H equ 0Fh ;# 
   121  000F                     # 673 "C:\Program Files (x86)\Microchip\xc8\v2.00\pic\include\pic16f887.h"
   122                           T1CON equ 010h ;# 
   123  0010                     # 767 "C:\Program Files (x86)\Microchip\xc8\v2.00\pic\include\pic16f887.h"
   124                           TMR2 equ 011h ;# 
   125  0011                     # 774 "C:\Program Files (x86)\Microchip\xc8\v2.00\pic\include\pic16f887.h"
   126                           T2CON equ 012h ;# 
   127  0012                     # 845 "C:\Program Files (x86)\Microchip\xc8\v2.00\pic\include\pic16f887.h"
   128                           SSPBUF equ 013h ;# 
   129  0013                     # 852 "C:\Program Files (x86)\Microchip\xc8\v2.00\pic\include\pic16f887.h"
   130                           SSPCON equ 014h ;# 
   131  0014                     # 922 "C:\Program Files (x86)\Microchip\xc8\v2.00\pic\include\pic16f887.h"
   132                           CCPR1 equ 015h ;# 
   133  0015                     # 929 "C:\Program Files (x86)\Microchip\xc8\v2.00\pic\include\pic16f887.h"
   134                           CCPR1L equ 015h ;# 
   135  0015                     # 936 "C:\Program Files (x86)\Microchip\xc8\v2.00\pic\include\pic16f887.h"
   136                           CCPR1H equ 016h ;# 
   137  0016                     # 943 "C:\Program Files (x86)\Microchip\xc8\v2.00\pic\include\pic16f887.h"
   138                           CCP1CON equ 017h ;# 
   139  0017                     # 1040 "C:\Program Files (x86)\Microchip\xc8\v2.00\pic\include\pic16f887.h"
   140                           RCSTA equ 018h ;# 
   141  0018                     # 1135 "C:\Program Files (x86)\Microchip\xc8\v2.00\pic\include\pic16f887.h"
   142                           TXREG equ 019h ;# 
   143  0019                     # 1142 "C:\Program Files (x86)\Microchip\xc8\v2.00\pic\include\pic16f887.h"
   144                           RCREG equ 01Ah ;# 
   145  001A                     # 1149 "C:\Program Files (x86)\Microchip\xc8\v2.00\pic\include\pic16f887.h"
   146                           CCPR2 equ 01Bh ;# 
   147  001B                     # 1156 "C:\Program Files (x86)\Microchip\xc8\v2.00\pic\include\pic16f887.h"
   148                           CCPR2L equ 01Bh ;# 
   149  001B                     # 1163 "C:\Program Files (x86)\Microchip\xc8\v2.00\pic\include\pic16f887.h"
   150                           CCPR2H equ 01Ch ;# 
   151  001C                     # 1170 "C:\Program Files (x86)\Microchip\xc8\v2.00\pic\include\pic16f887.h"
   152                           CCP2CON equ 01Dh ;# 
   153  001D                     # 1240 "C:\Program Files (x86)\Microchip\xc8\v2.00\pic\include\pic16f887.h"
   154                           ADRESH equ 01Eh ;# 
   155  001E                     # 1247 "C:\Program Files (x86)\Microchip\xc8\v2.00\pic\include\pic16f887.h"
   156                           ADCON0 equ 01Fh ;# 
   157  001F                     # 1348 "C:\Program Files (x86)\Microchip\xc8\v2.00\pic\include\pic16f887.h"
   158                           OPTION_REG equ 081h ;# 
   159  0081                     # 1418 "C:\Program Files (x86)\Microchip\xc8\v2.00\pic\include\pic16f887.h"
   160                           TRISA equ 085h ;# 
   161  0085                     # 1480 "C:\Program Files (x86)\Microchip\xc8\v2.00\pic\include\pic16f887.h"
   162                           TRISB equ 086h ;# 
   163  0086                     # 1542 "C:\Program Files (x86)\Microchip\xc8\v2.00\pic\include\pic16f887.h"
   164                           TRISC equ 087h ;# 
   165  0087                     # 1604 "C:\Program Files (x86)\Microchip\xc8\v2.00\pic\include\pic16f887.h"
   166                           TRISD equ 088h ;# 
   167  0088                     # 1666 "C:\Program Files (x86)\Microchip\xc8\v2.00\pic\include\pic16f887.h"
   168                           TRISE equ 089h ;# 
   169  0089                     # 1704 "C:\Program Files (x86)\Microchip\xc8\v2.00\pic\include\pic16f887.h"
   170                           PIE1 equ 08Ch ;# 
   171  008C                     # 1760 "C:\Program Files (x86)\Microchip\xc8\v2.00\pic\include\pic16f887.h"
   172                           PIE2 equ 08Dh ;# 
   173  008D                     # 1817 "C:\Program Files (x86)\Microchip\xc8\v2.00\pic\include\pic16f887.h"
   174                           PCON equ 08Eh ;# 
   175  008E                     # 1864 "C:\Program Files (x86)\Microchip\xc8\v2.00\pic\include\pic16f887.h"
   176                           OSCCON equ 08Fh ;# 
   177  008F                     # 1929 "C:\Program Files (x86)\Microchip\xc8\v2.00\pic\include\pic16f887.h"
   178                           OSCTUNE equ 090h ;# 
   179  0090                     # 1981 "C:\Program Files (x86)\Microchip\xc8\v2.00\pic\include\pic16f887.h"
   180                           SSPCON2 equ 091h ;# 
   181  0091                     # 2043 "C:\Program Files (x86)\Microchip\xc8\v2.00\pic\include\pic16f887.h"
   182                           PR2 equ 092h ;# 
   183  0092                     # 2050 "C:\Program Files (x86)\Microchip\xc8\v2.00\pic\include\pic16f887.h"
   184                           SSPADD equ 093h ;# 
   185  0093                     # 2057 "C:\Program Files (x86)\Microchip\xc8\v2.00\pic\include\pic16f887.h"
   186                           SSPMSK equ 093h ;# 
   187  0093                     # 2062 "C:\Program Files (x86)\Microchip\xc8\v2.00\pic\include\pic16f887.h"
   188                           MSK equ 093h ;# 
   189  0093                     # 2179 "C:\Program Files (x86)\Microchip\xc8\v2.00\pic\include\pic16f887.h"
   190                           SSPSTAT equ 094h ;# 
   191  0094                     # 2348 "C:\Program Files (x86)\Microchip\xc8\v2.00\pic\include\pic16f887.h"
   192                           WPUB equ 095h ;# 
   193  0095                     # 2418 "C:\Program Files (x86)\Microchip\xc8\v2.00\pic\include\pic16f887.h"
   194                           IOCB equ 096h ;# 
   195  0096                     # 2488 "C:\Program Files (x86)\Microchip\xc8\v2.00\pic\include\pic16f887.h"
   196                           VRCON equ 097h ;# 
   197  0097                     # 2558 "C:\Program Files (x86)\Microchip\xc8\v2.00\pic\include\pic16f887.h"
   198                           TXSTA equ 098h ;# 
   199  0098                     # 2644 "C:\Program Files (x86)\Microchip\xc8\v2.00\pic\include\pic16f887.h"
   200                           SPBRG equ 099h ;# 
   201  0099                     # 2706 "C:\Program Files (x86)\Microchip\xc8\v2.00\pic\include\pic16f887.h"
   202                           SPBRGH equ 09Ah ;# 
   203  009A                     # 2776 "C:\Program Files (x86)\Microchip\xc8\v2.00\pic\include\pic16f887.h"
   204                           PWM1CON equ 09Bh ;# 
   205  009B                     # 2846 "C:\Program Files (x86)\Microchip\xc8\v2.00\pic\include\pic16f887.h"
   206                           ECCPAS equ 09Ch ;# 
   207  009C                     # 2928 "C:\Program Files (x86)\Microchip\xc8\v2.00\pic\include\pic16f887.h"
   208                           PSTRCON equ 09Dh ;# 
   209  009D                     # 2972 "C:\Program Files (x86)\Microchip\xc8\v2.00\pic\include\pic16f887.h"
   210                           ADRESL equ 09Eh ;# 
   211  009E                     # 2979 "C:\Program Files (x86)\Microchip\xc8\v2.00\pic\include\pic16f887.h"
   212                           ADCON1 equ 09Fh ;# 
   213  009F                     # 3013 "C:\Program Files (x86)\Microchip\xc8\v2.00\pic\include\pic16f887.h"
   214                           WDTCON equ 0105h ;# 
   215  0105                     # 3066 "C:\Program Files (x86)\Microchip\xc8\v2.00\pic\include\pic16f887.h"
   216                           CM1CON0 equ 0107h ;# 
   217  0107                     # 3131 "C:\Program Files (x86)\Microchip\xc8\v2.00\pic\include\pic16f887.h"
   218                           CM2CON0 equ 0108h ;# 
   219  0108                     # 3196 "C:\Program Files (x86)\Microchip\xc8\v2.00\pic\include\pic16f887.h"
   220                           CM2CON1 equ 0109h ;# 
   221  0109                     # 3247 "C:\Program Files (x86)\Microchip\xc8\v2.00\pic\include\pic16f887.h"
   222                           EEDATA equ 010Ch ;# 
   223  010C                     # 3252 "C:\Program Files (x86)\Microchip\xc8\v2.00\pic\include\pic16f887.h"
   224                           EEDAT equ 010Ch ;# 
   225  010C                     # 3259 "C:\Program Files (x86)\Microchip\xc8\v2.00\pic\include\pic16f887.h"
   226                           EEADR equ 010Dh ;# 
   227  010D                     # 3266 "C:\Program Files (x86)\Microchip\xc8\v2.00\pic\include\pic16f887.h"
   228                           EEDATH equ 010Eh ;# 
   229  010E                     # 3273 "C:\Program Files (x86)\Microchip\xc8\v2.00\pic\include\pic16f887.h"
   230                           EEADRH equ 010Fh ;# 
   231  010F                     # 3280 "C:\Program Files (x86)\Microchip\xc8\v2.00\pic\include\pic16f887.h"
   232                           SRCON equ 0185h ;# 
   233  0185                     # 3337 "C:\Program Files (x86)\Microchip\xc8\v2.00\pic\include\pic16f887.h"
   234                           BAUDCTL equ 0187h ;# 
   235  0187                     # 3389 "C:\Program Files (x86)\Microchip\xc8\v2.00\pic\include\pic16f887.h"
   236                           ANSEL equ 0188h ;# 
   237  0188                     # 3451 "C:\Program Files (x86)\Microchip\xc8\v2.00\pic\include\pic16f887.h"
   238                           ANSELH equ 0189h ;# 
   239  0189                     # 3501 "C:\Program Files (x86)\Microchip\xc8\v2.00\pic\include\pic16f887.h"
   240                           EECON1 equ 018Ch ;# 
   241  018C                     # 3546 "C:\Program Files (x86)\Microchip\xc8\v2.00\pic\include\pic16f887.h"
   242                           EECON2 equ 018Dh ;# 
   243  018D                     # 54 "C:\Program Files (x86)\Microchip\xc8\v2.00\pic\include\pic16f887.h"
   244                           INDF equ 00h ;# 
   245  0000                     # 61 "C:\Program Files (x86)\Microchip\xc8\v2.00\pic\include\pic16f887.h"
   246                           TMR0 equ 01h ;# 
   247  0001                     # 68 "C:\Program Files (x86)\Microchip\xc8\v2.00\pic\include\pic16f887.h"
   248                           PCL equ 02h ;# 
   249  0002                     # 75 "C:\Program Files (x86)\Microchip\xc8\v2.00\pic\include\pic16f887.h"
   250                           STATUS equ 03h ;# 
   251  0003                     # 161 "C:\Program Files (x86)\Microchip\xc8\v2.00\pic\include\pic16f887.h"
   252                           FSR equ 04h ;# 
   253  0004                     # 168 "C:\Program Files (x86)\Microchip\xc8\v2.00\pic\include\pic16f887.h"
   254                           PORTA equ 05h ;# 
   255  0005                     # 230 "C:\Program Files (x86)\Microchip\xc8\v2.00\pic\include\pic16f887.h"
   256                           PORTB equ 06h ;# 
   257  0006                     # 292 "C:\Program Files (x86)\Microchip\xc8\v2.00\pic\include\pic16f887.h"
   258                           PORTC equ 07h ;# 
   259  0007                     # 354 "C:\Program Files (x86)\Microchip\xc8\v2.00\pic\include\pic16f887.h"
   260                           PORTD equ 08h ;# 
   261  0008                     # 416 "C:\Program Files (x86)\Microchip\xc8\v2.00\pic\include\pic16f887.h"
   262                           PORTE equ 09h ;# 
   263  0009                     # 454 "C:\Program Files (x86)\Microchip\xc8\v2.00\pic\include\pic16f887.h"
   264                           PCLATH equ 0Ah ;# 
   265  000A                     # 461 "C:\Program Files (x86)\Microchip\xc8\v2.00\pic\include\pic16f887.h"
   266                           INTCON equ 0Bh ;# 
   267  000B                     # 539 "C:\Program Files (x86)\Microchip\xc8\v2.00\pic\include\pic16f887.h"
   268                           PIR1 equ 0Ch ;# 
   269  000C                     # 595 "C:\Program Files (x86)\Microchip\xc8\v2.00\pic\include\pic16f887.h"
   270                           PIR2 equ 0Dh ;# 
   271  000D                     # 652 "C:\Program Files (x86)\Microchip\xc8\v2.00\pic\include\pic16f887.h"
   272                           TMR1 equ 0Eh ;# 
   273  000E                     # 659 "C:\Program Files (x86)\Microchip\xc8\v2.00\pic\include\pic16f887.h"
   274                           TMR1L equ 0Eh ;# 
   275  000E                     # 666 "C:\Program Files (x86)\Microchip\xc8\v2.00\pic\include\pic16f887.h"
   276                           TMR1H equ 0Fh ;# 
   277  000F                     # 673 "C:\Program Files (x86)\Microchip\xc8\v2.00\pic\include\pic16f887.h"
   278                           T1CON equ 010h ;# 
   279  0010                     # 767 "C:\Program Files (x86)\Microchip\xc8\v2.00\pic\include\pic16f887.h"
   280                           TMR2 equ 011h ;# 
   281  0011                     # 774 "C:\Program Files (x86)\Microchip\xc8\v2.00\pic\include\pic16f887.h"
   282                           T2CON equ 012h ;# 
   283  0012                     # 845 "C:\Program Files (x86)\Microchip\xc8\v2.00\pic\include\pic16f887.h"
   284                           SSPBUF equ 013h ;# 
   285  0013                     # 852 "C:\Program Files (x86)\Microchip\xc8\v2.00\pic\include\pic16f887.h"
   286                           SSPCON equ 014h ;# 
   287  0014                     # 922 "C:\Program Files (x86)\Microchip\xc8\v2.00\pic\include\pic16f887.h"
   288                           CCPR1 equ 015h ;# 
   289  0015                     # 929 "C:\Program Files (x86)\Microchip\xc8\v2.00\pic\include\pic16f887.h"
   290                           CCPR1L equ 015h ;# 
   291  0015                     # 936 "C:\Program Files (x86)\Microchip\xc8\v2.00\pic\include\pic16f887.h"
   292                           CCPR1H equ 016h ;# 
   293  0016                     # 943 "C:\Program Files (x86)\Microchip\xc8\v2.00\pic\include\pic16f887.h"
   294                           CCP1CON equ 017h ;# 
   295  0017                     # 1040 "C:\Program Files (x86)\Microchip\xc8\v2.00\pic\include\pic16f887.h"
   296                           RCSTA equ 018h ;# 
   297  0018                     # 1135 "C:\Program Files (x86)\Microchip\xc8\v2.00\pic\include\pic16f887.h"
   298                           TXREG equ 019h ;# 
   299  0019                     # 1142 "C:\Program Files (x86)\Microchip\xc8\v2.00\pic\include\pic16f887.h"
   300                           RCREG equ 01Ah ;# 
   301  001A                     # 1149 "C:\Program Files (x86)\Microchip\xc8\v2.00\pic\include\pic16f887.h"
   302                           CCPR2 equ 01Bh ;# 
   303  001B                     # 1156 "C:\Program Files (x86)\Microchip\xc8\v2.00\pic\include\pic16f887.h"
   304                           CCPR2L equ 01Bh ;# 
   305  001B                     # 1163 "C:\Program Files (x86)\Microchip\xc8\v2.00\pic\include\pic16f887.h"
   306                           CCPR2H equ 01Ch ;# 
   307  001C                     # 1170 "C:\Program Files (x86)\Microchip\xc8\v2.00\pic\include\pic16f887.h"
   308                           CCP2CON equ 01Dh ;# 
   309  001D                     # 1240 "C:\Program Files (x86)\Microchip\xc8\v2.00\pic\include\pic16f887.h"
   310                           ADRESH equ 01Eh ;# 
   311  001E                     # 1247 "C:\Program Files (x86)\Microchip\xc8\v2.00\pic\include\pic16f887.h"
   312                           ADCON0 equ 01Fh ;# 
   313  001F                     # 1348 "C:\Program Files (x86)\Microchip\xc8\v2.00\pic\include\pic16f887.h"
   314                           OPTION_REG equ 081h ;# 
   315  0081                     # 1418 "C:\Program Files (x86)\Microchip\xc8\v2.00\pic\include\pic16f887.h"
   316                           TRISA equ 085h ;# 
   317  0085                     # 1480 "C:\Program Files (x86)\Microchip\xc8\v2.00\pic\include\pic16f887.h"
   318                           TRISB equ 086h ;# 
   319  0086                     # 1542 "C:\Program Files (x86)\Microchip\xc8\v2.00\pic\include\pic16f887.h"
   320                           TRISC equ 087h ;# 
   321  0087                     # 1604 "C:\Program Files (x86)\Microchip\xc8\v2.00\pic\include\pic16f887.h"
   322                           TRISD equ 088h ;# 
   323  0088                     # 1666 "C:\Program Files (x86)\Microchip\xc8\v2.00\pic\include\pic16f887.h"
   324                           TRISE equ 089h ;# 
   325  0089                     # 1704 "C:\Program Files (x86)\Microchip\xc8\v2.00\pic\include\pic16f887.h"
   326                           PIE1 equ 08Ch ;# 
   327  008C                     # 1760 "C:\Program Files (x86)\Microchip\xc8\v2.00\pic\include\pic16f887.h"
   328                           PIE2 equ 08Dh ;# 
   329  008D                     # 1817 "C:\Program Files (x86)\Microchip\xc8\v2.00\pic\include\pic16f887.h"
   330                           PCON equ 08Eh ;# 
   331  008E                     # 1864 "C:\Program Files (x86)\Microchip\xc8\v2.00\pic\include\pic16f887.h"
   332                           OSCCON equ 08Fh ;# 
   333  008F                     # 1929 "C:\Program Files (x86)\Microchip\xc8\v2.00\pic\include\pic16f887.h"
   334                           OSCTUNE equ 090h ;# 
   335  0090                     # 1981 "C:\Program Files (x86)\Microchip\xc8\v2.00\pic\include\pic16f887.h"
   336                           SSPCON2 equ 091h ;# 
   337  0091                     # 2043 "C:\Program Files (x86)\Microchip\xc8\v2.00\pic\include\pic16f887.h"
   338                           PR2 equ 092h ;# 
   339  0092                     # 2050 "C:\Program Files (x86)\Microchip\xc8\v2.00\pic\include\pic16f887.h"
   340                           SSPADD equ 093h ;# 
   341  0093                     # 2057 "C:\Program Files (x86)\Microchip\xc8\v2.00\pic\include\pic16f887.h"
   342                           SSPMSK equ 093h ;# 
   343  0093                     # 2062 "C:\Program Files (x86)\Microchip\xc8\v2.00\pic\include\pic16f887.h"
   344                           MSK equ 093h ;# 
   345  0093                     # 2179 "C:\Program Files (x86)\Microchip\xc8\v2.00\pic\include\pic16f887.h"
   346                           SSPSTAT equ 094h ;# 
   347  0094                     # 2348 "C:\Program Files (x86)\Microchip\xc8\v2.00\pic\include\pic16f887.h"
   348                           WPUB equ 095h ;# 
   349  0095                     # 2418 "C:\Program Files (x86)\Microchip\xc8\v2.00\pic\include\pic16f887.h"
   350                           IOCB equ 096h ;# 
   351  0096                     # 2488 "C:\Program Files (x86)\Microchip\xc8\v2.00\pic\include\pic16f887.h"
   352                           VRCON equ 097h ;# 
   353  0097                     # 2558 "C:\Program Files (x86)\Microchip\xc8\v2.00\pic\include\pic16f887.h"
   354                           TXSTA equ 098h ;# 
   355  0098                     # 2644 "C:\Program Files (x86)\Microchip\xc8\v2.00\pic\include\pic16f887.h"
   356                           SPBRG equ 099h ;# 
   357  0099                     # 2706 "C:\Program Files (x86)\Microchip\xc8\v2.00\pic\include\pic16f887.h"
   358                           SPBRGH equ 09Ah ;# 
   359  009A                     # 2776 "C:\Program Files (x86)\Microchip\xc8\v2.00\pic\include\pic16f887.h"
   360                           PWM1CON equ 09Bh ;# 
   361  009B                     # 2846 "C:\Program Files (x86)\Microchip\xc8\v2.00\pic\include\pic16f887.h"
   362                           ECCPAS equ 09Ch ;# 
   363  009C                     # 2928 "C:\Program Files (x86)\Microchip\xc8\v2.00\pic\include\pic16f887.h"
   364                           PSTRCON equ 09Dh ;# 
   365  009D                     # 2972 "C:\Program Files (x86)\Microchip\xc8\v2.00\pic\include\pic16f887.h"
   366                           ADRESL equ 09Eh ;# 
   367  009E                     # 2979 "C:\Program Files (x86)\Microchip\xc8\v2.00\pic\include\pic16f887.h"
   368                           ADCON1 equ 09Fh ;# 
   369  009F                     # 3013 "C:\Program Files (x86)\Microchip\xc8\v2.00\pic\include\pic16f887.h"
   370                           WDTCON equ 0105h ;# 
   371  0105                     # 3066 "C:\Program Files (x86)\Microchip\xc8\v2.00\pic\include\pic16f887.h"
   372                           CM1CON0 equ 0107h ;# 
   373  0107                     # 3131 "C:\Program Files (x86)\Microchip\xc8\v2.00\pic\include\pic16f887.h"
   374                           CM2CON0 equ 0108h ;# 
   375  0108                     # 3196 "C:\Program Files (x86)\Microchip\xc8\v2.00\pic\include\pic16f887.h"
   376                           CM2CON1 equ 0109h ;# 
   377  0109                     # 3247 "C:\Program Files (x86)\Microchip\xc8\v2.00\pic\include\pic16f887.h"
   378                           EEDATA equ 010Ch ;# 
   379  010C                     # 3252 "C:\Program Files (x86)\Microchip\xc8\v2.00\pic\include\pic16f887.h"
   380                           EEDAT equ 010Ch ;# 
   381  010C                     # 3259 "C:\Program Files (x86)\Microchip\xc8\v2.00\pic\include\pic16f887.h"
   382                           EEADR equ 010Dh ;# 
   383  010D                     # 3266 "C:\Program Files (x86)\Microchip\xc8\v2.00\pic\include\pic16f887.h"
   384                           EEDATH equ 010Eh ;# 
   385  010E                     # 3273 "C:\Program Files (x86)\Microchip\xc8\v2.00\pic\include\pic16f887.h"
   386                           EEADRH equ 010Fh ;# 
   387  010F                     # 3280 "C:\Program Files (x86)\Microchip\xc8\v2.00\pic\include\pic16f887.h"
   388                           SRCON equ 0185h ;# 
   389  0185                     # 3337 "C:\Program Files (x86)\Microchip\xc8\v2.00\pic\include\pic16f887.h"
   390                           BAUDCTL equ 0187h ;# 
   391  0187                     # 3389 "C:\Program Files (x86)\Microchip\xc8\v2.00\pic\include\pic16f887.h"
   392                           ANSEL equ 0188h ;# 
   393  0188                     # 3451 "C:\Program Files (x86)\Microchip\xc8\v2.00\pic\include\pic16f887.h"
   394                           ANSELH equ 0189h ;# 
   395  0189                     # 3501 "C:\Program Files (x86)\Microchip\xc8\v2.00\pic\include\pic16f887.h"
   396                           EECON1 equ 018Ch ;# 
   397  018C                     # 3546 "C:\Program Files (x86)\Microchip\xc8\v2.00\pic\include\pic16f887.h"
   398                           EECON2 equ 018Dh ;# 
   399  018D                     	FNCALL	_main,_EEPROM_Write
   400                           	FNCALL	_main,_UART_Init
   401                           	FNCALL	_main,_config_interrupt
   402                           	FNCALL	_UART_Init,___aldiv
   403                           	FNROOT	_main
   404                           	FNCALL	_ISR,_CONVERT_Data_11Byte
   405                           	FNCALL	_ISR,_CONVERT_Data_5Byte
   406                           	FNCALL	_ISR,_CONVERT_Data_6Byte
   407                           	FNCALL	_ISR,_EEPROM_Read
   408                           	FNCALL	_ISR,_UART_Read_Text
   409                           	FNCALL	_ISR,_UART_TX_Empty
   410                           	FNCALL	_ISR,_UART_Write_Text_Length
   411                           	FNCALL	_ISR,i1_EEPROM_Write
   412                           	FNCALL	_UART_Write_Text_Length,_UART_Write
   413                           	FNCALL	_UART_Read_Text,_UART_Read
   414                           	FNCALL	_CONVERT_Data_6Byte,_crc16
   415                           	FNCALL	_CONVERT_Data_6Byte,_reflect_byte
   416                           	FNCALL	_CONVERT_Data_5Byte,_crc16
   417                           	FNCALL	_CONVERT_Data_5Byte,_reflect_byte
   418                           	FNCALL	_CONVERT_Data_11Byte,_crc16
   419                           	FNCALL	_CONVERT_Data_11Byte,_reflect_byte
   420                           	FNCALL	intlevel1,_ISR
   421                           	global	intlevel1
   422                           	FNROOT	intlevel1
   423                           	global	_data_response_8byte
   424                           	global	_data_response_7byte
   425                           	global	_data_response_13byte
   426                           psect	idataBANK0,class=CODE,space=0,delta=2,noexec
   427                           global __pidataBANK0
   428                           __pidataBANK0:
   429  1776                     	file	"main.c"
   430                           	line	46
   431                           
   432                           ;initializer for _data_response_8byte
   433                           	retlw	06h
   434  1776  3406               	retlw	06h
   435  1777  3406               	retlw	low(0)
   436  1778  3400               	retlw	low(0)
   437  1779  3400               	retlw	low(0)
   438  177A  3400               	retlw	low(0)
   439  177B  3400               	retlw	low(0)
   440  177C  3400               	retlw	low(0)
   441  177D  3400               	retlw	low(0)
   442  177E  3400               psect	idataBANK1,class=CODE,space=0,delta=2,noexec
   443                           global __pidataBANK1
   444                           __pidataBANK1:
   445  176E                     	line	45
   446                           
   447                           ;initializer for _data_response_7byte
   448                           	retlw	06h
   449  176E  3406               	retlw	03h
   450  176F  3403               	retlw	02h
   451  1770  3402               	retlw	low(0)
   452  1771  3400               	retlw	low(0)
   453  1772  3400               	retlw	low(0)
   454  1773  3400               	retlw	low(0)
   455  1774  3400               	retlw	low(0)
   456  1775  3400               psect	idataBANK3,class=CODE,space=0,delta=2,noexec
   457                           global __pidataBANK3
   458                           __pidataBANK3:
   459  179B                     	line	44
   460                           
   461                           ;initializer for _data_response_13byte
   462                           	retlw	06h
   463  179B  3406               	retlw	03h
   464  179C  3403               	retlw	08h
   465  179D  3408               	retlw	low(0)
   466  179E  3400               	retlw	low(0)
   467  179F  3400               	retlw	low(0)
   468  17A0  3400               	retlw	low(0)
   469  17A1  3400               	retlw	low(0)
   470  17A2  3400               	retlw	low(0)
   471  17A3  3400               	retlw	low(0)
   472  17A4  3400               	retlw	low(0)
   473  17A5  3400               	retlw	low(0)
   474  17A6  3400               	retlw	low(0)
   475  17A7  3400               	retlw	low(0)
   476  17A8  3400               	global	_crc32_lookup_table
   477                           psect	stringtext,class=STRCODE,delta=2,reloc=256,noexec
   478                           global __pstringtext
   479                           __pstringtext:
   480  0600                     stringtab:
   481  0600                     	global    __stringtab
   482                           __stringtab:
   483  0600                     ;	String table - string pointers are 2 bytes each
   484                           	btfsc	(btemp+1),7
   485  0600  1BFF               	ljmp	stringcode
   486  0601  2E0A               	bcf	status,7
   487  0602  1383               	btfsc	(btemp+1),0
   488  0603  187F               	bsf	status,7
   489  0604  1783               	movf	indf,w
   490  0605  0800               	incf fsr
   491  0606  0A84               skipnz
   492  0607  1903               incf btemp+1
   493  0608  0AFF               	return
   494  0609  0008               stringcode:
   495  060A                     	movf btemp+1,w
   496  060A  087F               andlw 7Fh
   497  060B  397F               movwf	pclath
   498  060C  008A               	movf	fsr,w
   499  060D  0804               incf fsr
   500  060E  0A84               skipnz
   501  060F  1903               incf btemp+1
   502  0610  0AFF               	movwf pc
   503  0611  0082               	global __stringbase
   504                           __stringbase:
   505  0612                     	global    __end_of__stringtab
   506                           __end_of__stringtab:
   507  0612                     	file	"./crcLIBhex.h"
   508                           	line	62
   509                           _crc32_lookup_table:
   510  0612                     	retlw	low(0)
   511  0612  3400               	retlw	high(0)
   512  0613  3400               	retlw	low highword(0)
   513  0614  3400               	retlw	high highword(0)
   514  0615  3400               
   515                           	retlw	096h
   516  0616  3496               	retlw	030h
   517  0617  3430               	retlw	07h
   518  0618  3407               	retlw	077h
   519  0619  3477               
   520                           	retlw	02Ch
   521  061A  342C               	retlw	061h
   522  061B  3461               	retlw	0Eh
   523  061C  340E               	retlw	0EEh
   524  061D  34EE               
   525                           	retlw	0BAh
   526  061E  34BA               	retlw	051h
   527  061F  3451               	retlw	09h
   528  0620  3409               	retlw	099h
   529  0621  3499               
   530                           	retlw	019h
   531  0622  3419               	retlw	0C4h
   532  0623  34C4               	retlw	06Dh
   533  0624  346D               	retlw	07h
   534  0625  3407               
   535                           	retlw	08Fh
   536  0626  348F               	retlw	0F4h
   537  0627  34F4               	retlw	06Ah
   538  0628  346A               	retlw	070h
   539  0629  3470               
   540                           	retlw	035h
   541  062A  3435               	retlw	0A5h
   542  062B  34A5               	retlw	063h
   543  062C  3463               	retlw	0E9h
   544  062D  34E9               
   545                           	retlw	0A3h
   546  062E  34A3               	retlw	095h
   547  062F  3495               	retlw	064h
   548  0630  3464               	retlw	09Eh
   549  0631  349E               
   550                           	retlw	032h
   551  0632  3432               	retlw	088h
   552  0633  3488               	retlw	0DBh
   553  0634  34DB               	retlw	0Eh
   554  0635  340E               
   555                           	retlw	0A4h
   556  0636  34A4               	retlw	0B8h
   557  0637  34B8               	retlw	0DCh
   558  0638  34DC               	retlw	079h
   559  0639  3479               
   560                           	retlw	01Eh
   561  063A  341E               	retlw	0E9h
   562  063B  34E9               	retlw	0D5h
   563  063C  34D5               	retlw	0E0h
   564  063D  34E0               
   565                           	retlw	088h
   566  063E  3488               	retlw	0D9h
   567  063F  34D9               	retlw	0D2h
   568  0640  34D2               	retlw	097h
   569  0641  3497               
   570                           	retlw	02Bh
   571  0642  342B               	retlw	04Ch
   572  0643  344C               	retlw	0B6h
   573  0644  34B6               	retlw	09h
   574  0645  3409               
   575                           	retlw	0BDh
   576  0646  34BD               	retlw	07Ch
   577  0647  347C               	retlw	0B1h
   578  0648  34B1               	retlw	07Eh
   579  0649  347E               
   580                           	retlw	07h
   581  064A  3407               	retlw	02Dh
   582  064B  342D               	retlw	0B8h
   583  064C  34B8               	retlw	0E7h
   584  064D  34E7               
   585                           	retlw	091h
   586  064E  3491               	retlw	01Dh
   587  064F  341D               	retlw	0BFh
   588  0650  34BF               	retlw	090h
   589  0651  3490               
   590                           	retlw	064h
   591  0652  3464               	retlw	010h
   592  0653  3410               	retlw	0B7h
   593  0654  34B7               	retlw	01Dh
   594  0655  341D               
   595                           	retlw	0F2h
   596  0656  34F2               	retlw	020h
   597  0657  3420               	retlw	0B0h
   598  0658  34B0               	retlw	06Ah
   599  0659  346A               
   600                           	retlw	048h
   601  065A  3448               	retlw	071h
   602  065B  3471               	retlw	0B9h
   603  065C  34B9               	retlw	0F3h
   604  065D  34F3               
   605                           	retlw	0DEh
   606  065E  34DE               	retlw	041h
   607  065F  3441               	retlw	0BEh
   608  0660  34BE               	retlw	084h
   609  0661  3484               
   610                           	retlw	07Dh
   611  0662  347D               	retlw	0D4h
   612  0663  34D4               	retlw	0DAh
   613  0664  34DA               	retlw	01Ah
   614  0665  341A               
   615                           	retlw	0EBh
   616  0666  34EB               	retlw	0E4h
   617  0667  34E4               	retlw	0DDh
   618  0668  34DD               	retlw	06Dh
   619  0669  346D               
   620                           	retlw	051h
   621  066A  3451               	retlw	0B5h
   622  066B  34B5               	retlw	0D4h
   623  066C  34D4               	retlw	0F4h
   624  066D  34F4               
   625                           	retlw	0C7h
   626  066E  34C7               	retlw	085h
   627  066F  3485               	retlw	0D3h
   628  0670  34D3               	retlw	083h
   629  0671  3483               
   630                           	retlw	056h
   631  0672  3456               	retlw	098h
   632  0673  3498               	retlw	06Ch
   633  0674  346C               	retlw	013h
   634  0675  3413               
   635                           	retlw	0C0h
   636  0676  34C0               	retlw	0A8h
   637  0677  34A8               	retlw	06Bh
   638  0678  346B               	retlw	064h
   639  0679  3464               
   640                           	retlw	07Ah
   641  067A  347A               	retlw	0F9h
   642  067B  34F9               	retlw	062h
   643  067C  3462               	retlw	0FDh
   644  067D  34FD               
   645                           	retlw	0ECh
   646  067E  34EC               	retlw	0C9h
   647  067F  34C9               	retlw	065h
   648  0680  3465               	retlw	08Ah
   649  0681  348A               
   650                           	retlw	04Fh
   651  0682  344F               	retlw	05Ch
   652  0683  345C               	retlw	01h
   653  0684  3401               	retlw	014h
   654  0685  3414               
   655                           	retlw	0D9h
   656  0686  34D9               	retlw	06Ch
   657  0687  346C               	retlw	06h
   658  0688  3406               	retlw	063h
   659  0689  3463               
   660                           	retlw	063h
   661  068A  3463               	retlw	03Dh
   662  068B  343D               	retlw	0Fh
   663  068C  340F               	retlw	0FAh
   664  068D  34FA               
   665                           	retlw	0F5h
   666  068E  34F5               	retlw	0Dh
   667  068F  340D               	retlw	08h
   668  0690  3408               	retlw	08Dh
   669  0691  348D               
   670                           	retlw	0C8h
   671  0692  34C8               	retlw	020h
   672  0693  3420               	retlw	06Eh
   673  0694  346E               	retlw	03Bh
   674  0695  343B               
   675                           	retlw	05Eh
   676  0696  345E               	retlw	010h
   677  0697  3410               	retlw	069h
   678  0698  3469               	retlw	04Ch
   679  0699  344C               
   680                           	retlw	0E4h
   681  069A  34E4               	retlw	041h
   682  069B  3441               	retlw	060h
   683  069C  3460               	retlw	0D5h
   684  069D  34D5               
   685                           	retlw	072h
   686  069E  3472               	retlw	071h
   687  069F  3471               	retlw	067h
   688  06A0  3467               	retlw	0A2h
   689  06A1  34A2               
   690                           	retlw	0D1h
   691  06A2  34D1               	retlw	0E4h
   692  06A3  34E4               	retlw	03h
   693  06A4  3403               	retlw	03Ch
   694  06A5  343C               
   695                           	retlw	047h
   696  06A6  3447               	retlw	0D4h
   697  06A7  34D4               	retlw	04h
   698  06A8  3404               	retlw	04Bh
   699  06A9  344B               
   700                           	retlw	0FDh
   701  06AA  34FD               	retlw	085h
   702  06AB  3485               	retlw	0Dh
   703  06AC  340D               	retlw	0D2h
   704  06AD  34D2               
   705                           	retlw	06Bh
   706  06AE  346B               	retlw	0B5h
   707  06AF  34B5               	retlw	0Ah
   708  06B0  340A               	retlw	0A5h
   709  06B1  34A5               
   710                           	retlw	0FAh
   711  06B2  34FA               	retlw	0A8h
   712  06B3  34A8               	retlw	0B5h
   713  06B4  34B5               	retlw	035h
   714  06B5  3435               
   715                           	retlw	06Ch
   716  06B6  346C               	retlw	098h
   717  06B7  3498               	retlw	0B2h
   718  06B8  34B2               	retlw	042h
   719  06B9  3442               
   720                           	retlw	0D6h
   721  06BA  34D6               	retlw	0C9h
   722  06BB  34C9               	retlw	0BBh
   723  06BC  34BB               	retlw	0DBh
   724  06BD  34DB               
   725                           	retlw	040h
   726  06BE  3440               	retlw	0F9h
   727  06BF  34F9               	retlw	0BCh
   728  06C0  34BC               	retlw	0ACh
   729  06C1  34AC               
   730                           	retlw	0E3h
   731  06C2  34E3               	retlw	06Ch
   732  06C3  346C               	retlw	0D8h
   733  06C4  34D8               	retlw	032h
   734  06C5  3432               
   735                           	retlw	075h
   736  06C6  3475               	retlw	05Ch
   737  06C7  345C               	retlw	0DFh
   738  06C8  34DF               	retlw	045h
   739  06C9  3445               
   740                           	retlw	0CFh
   741  06CA  34CF               	retlw	0Dh
   742  06CB  340D               	retlw	0D6h
   743  06CC  34D6               	retlw	0DCh
   744  06CD  34DC               
   745                           	retlw	059h
   746  06CE  3459               	retlw	03Dh
   747  06CF  343D               	retlw	0D1h
   748  06D0  34D1               	retlw	0ABh
   749  06D1  34AB               
   750                           	retlw	0ACh
   751  06D2  34AC               	retlw	030h
   752  06D3  3430               	retlw	0D9h
   753  06D4  34D9               	retlw	026h
   754  06D5  3426               
   755                           	retlw	03Ah
   756  06D6  343A               	retlw	0
   757  06D7  3400               	retlw	0DEh
   758  06D8  34DE               	retlw	051h
   759  06D9  3451               
   760                           	retlw	080h
   761  06DA  3480               	retlw	051h
   762  06DB  3451               	retlw	0D7h
   763  06DC  34D7               	retlw	0C8h
   764  06DD  34C8               
   765                           	retlw	016h
   766  06DE  3416               	retlw	061h
   767  06DF  3461               	retlw	0D0h
   768  06E0  34D0               	retlw	0BFh
   769  06E1  34BF               
   770                           	retlw	0B5h
   771  06E2  34B5               	retlw	0F4h
   772  06E3  34F4               	retlw	0B4h
   773  06E4  34B4               	retlw	021h
   774  06E5  3421               
   775                           	retlw	023h
   776  06E6  3423               	retlw	0C4h
   777  06E7  34C4               	retlw	0B3h
   778  06E8  34B3               	retlw	056h
   779  06E9  3456               
   780                           	retlw	099h
   781  06EA  3499               	retlw	095h
   782  06EB  3495               	retlw	0BAh
   783  06EC  34BA               	retlw	0CFh
   784  06ED  34CF               
   785                           	retlw	0Fh
   786  06EE  340F               	retlw	0A5h
   787  06EF  34A5               	retlw	0BDh
   788  06F0  34BD               	retlw	0B8h
   789  06F1  34B8               
   790                           	retlw	09Eh
   791  06F2  349E               	retlw	0B8h
   792  06F3  34B8               	retlw	02h
   793  06F4  3402               	retlw	028h
   794  06F5  3428               
   795                           	retlw	08h
   796  06F6  3408               	retlw	088h
   797  06F7  3488               	retlw	05h
   798  06F8  3405               	retlw	05Fh
   799  06F9  345F               
   800                           	retlw	0B2h
   801  06FA  34B2               	retlw	0D9h
   802  06FB  34D9               	retlw	0Ch
   803  06FC  340C               	retlw	0C6h
   804  06FD  34C6               
   805                           	retlw	024h
   806  06FE  3424               	retlw	0E9h
   807  06FF  34E9               	retlw	0Bh
   808  0700  340B               	retlw	0B1h
   809  0701  34B1               
   810                           	retlw	087h
   811  0702  3487               	retlw	07Ch
   812  0703  347C               	retlw	06Fh
   813  0704  346F               	retlw	02Fh
   814  0705  342F               
   815                           	retlw	011h
   816  0706  3411               	retlw	04Ch
   817  0707  344C               	retlw	068h
   818  0708  3468               	retlw	058h
   819  0709  3458               
   820                           	retlw	0ABh
   821  070A  34AB               	retlw	01Dh
   822  070B  341D               	retlw	061h
   823  070C  3461               	retlw	0C1h
   824  070D  34C1               
   825                           	retlw	03Dh
   826  070E  343D               	retlw	02Dh
   827  070F  342D               	retlw	066h
   828  0710  3466               	retlw	0B6h
   829  0711  34B6               
   830                           	retlw	090h
   831  0712  3490               	retlw	041h
   832  0713  3441               	retlw	0DCh
   833  0714  34DC               	retlw	076h
   834  0715  3476               
   835                           	retlw	06h
   836  0716  3406               	retlw	071h
   837  0717  3471               	retlw	0DBh
   838  0718  34DB               	retlw	01h
   839  0719  3401               
   840                           	retlw	0BCh
   841  071A  34BC               	retlw	020h
   842  071B  3420               	retlw	0D2h
   843  071C  34D2               	retlw	098h
   844  071D  3498               
   845                           	retlw	02Ah
   846  071E  342A               	retlw	010h
   847  071F  3410               	retlw	0D5h
   848  0720  34D5               	retlw	0EFh
   849  0721  34EF               
   850                           	retlw	089h
   851  0722  3489               	retlw	085h
   852  0723  3485               	retlw	0B1h
   853  0724  34B1               	retlw	071h
   854  0725  3471               
   855                           	retlw	01Fh
   856  0726  341F               	retlw	0B5h
   857  0727  34B5               	retlw	0B6h
   858  0728  34B6               	retlw	06h
   859  0729  3406               
   860                           	retlw	0A5h
   861  072A  34A5               	retlw	0E4h
   862  072B  34E4               	retlw	0BFh
   863  072C  34BF               	retlw	09Fh
   864  072D  349F               
   865                           	retlw	033h
   866  072E  3433               	retlw	0D4h
   867  072F  34D4               	retlw	0B8h
   868  0730  34B8               	retlw	0E8h
   869  0731  34E8               
   870                           	retlw	0A2h
   871  0732  34A2               	retlw	0C9h
   872  0733  34C9               	retlw	07h
   873  0734  3407               	retlw	078h
   874  0735  3478               
   875                           	retlw	034h
   876  0736  3434               	retlw	0F9h
   877  0737  34F9               	retlw	0
   878  0738  3400               	retlw	0Fh
   879  0739  340F               
   880                           	retlw	08Eh
   881  073A  348E               	retlw	0A8h
   882  073B  34A8               	retlw	09h
   883  073C  3409               	retlw	096h
   884  073D  3496               
   885                           	retlw	018h
   886  073E  3418               	retlw	098h
   887  073F  3498               	retlw	0Eh
   888  0740  340E               	retlw	0E1h
   889  0741  34E1               
   890                           	retlw	0BBh
   891  0742  34BB               	retlw	0Dh
   892  0743  340D               	retlw	06Ah
   893  0744  346A               	retlw	07Fh
   894  0745  347F               
   895                           	retlw	02Dh
   896  0746  342D               	retlw	03Dh
   897  0747  343D               	retlw	06Dh
   898  0748  346D               	retlw	08h
   899  0749  3408               
   900                           	retlw	097h
   901  074A  3497               	retlw	06Ch
   902  074B  346C               	retlw	064h
   903  074C  3464               	retlw	091h
   904  074D  3491               
   905                           	retlw	01h
   906  074E  3401               	retlw	05Ch
   907  074F  345C               	retlw	063h
   908  0750  3463               	retlw	0E6h
   909  0751  34E6               
   910                           	retlw	0F4h
   911  0752  34F4               	retlw	051h
   912  0753  3451               	retlw	06Bh
   913  0754  346B               	retlw	06Bh
   914  0755  346B               
   915                           	retlw	062h
   916  0756  3462               	retlw	061h
   917  0757  3461               	retlw	06Ch
   918  0758  346C               	retlw	01Ch
   919  0759  341C               
   920                           	retlw	0D8h
   921  075A  34D8               	retlw	030h
   922  075B  3430               	retlw	065h
   923  075C  3465               	retlw	085h
   924  075D  3485               
   925                           	retlw	04Eh
   926  075E  344E               	retlw	0
   927  075F  3400               	retlw	062h
   928  0760  3462               	retlw	0F2h
   929  0761  34F2               
   930                           	retlw	0EDh
   931  0762  34ED               	retlw	095h
   932  0763  3495               	retlw	06h
   933  0764  3406               	retlw	06Ch
   934  0765  346C               
   935                           	retlw	07Bh
   936  0766  347B               	retlw	0A5h
   937  0767  34A5               	retlw	01h
   938  0768  3401               	retlw	01Bh
   939  0769  341B               
   940                           	retlw	0C1h
   941  076A  34C1               	retlw	0F4h
   942  076B  34F4               	retlw	08h
   943  076C  3408               	retlw	082h
   944  076D  3482               
   945                           	retlw	057h
   946  076E  3457               	retlw	0C4h
   947  076F  34C4               	retlw	0Fh
   948  0770  340F               	retlw	0F5h
   949  0771  34F5               
   950                           	retlw	0C6h
   951  0772  34C6               	retlw	0D9h
   952  0773  34D9               	retlw	0B0h
   953  0774  34B0               	retlw	065h
   954  0775  3465               
   955                           	retlw	050h
   956  0776  3450               	retlw	0E9h
   957  0777  34E9               	retlw	0B7h
   958  0778  34B7               	retlw	012h
   959  0779  3412               
   960                           	retlw	0EAh
   961  077A  34EA               	retlw	0B8h
   962  077B  34B8               	retlw	0BEh
   963  077C  34BE               	retlw	08Bh
   964  077D  348B               
   965                           	retlw	07Ch
   966  077E  347C               	retlw	088h
   967  077F  3488               	retlw	0B9h
   968  0780  34B9               	retlw	0FCh
   969  0781  34FC               
   970                           	retlw	0DFh
   971  0782  34DF               	retlw	01Dh
   972  0783  341D               	retlw	0DDh
   973  0784  34DD               	retlw	062h
   974  0785  3462               
   975                           	retlw	049h
   976  0786  3449               	retlw	02Dh
   977  0787  342D               	retlw	0DAh
   978  0788  34DA               	retlw	015h
   979  0789  3415               
   980                           	retlw	0F3h
   981  078A  34F3               	retlw	07Ch
   982  078B  347C               	retlw	0D3h
   983  078C  34D3               	retlw	08Ch
   984  078D  348C               
   985                           	retlw	065h
   986  078E  3465               	retlw	04Ch
   987  078F  344C               	retlw	0D4h
   988  0790  34D4               	retlw	0FBh
   989  0791  34FB               
   990                           	retlw	058h
   991  0792  3458               	retlw	061h
   992  0793  3461               	retlw	0B2h
   993  0794  34B2               	retlw	04Dh
   994  0795  344D               
   995                           	retlw	0CEh
   996  0796  34CE               	retlw	051h
   997  0797  3451               	retlw	0B5h
   998  0798  34B5               	retlw	03Ah
   999  0799  343A               
  1000                           	retlw	074h
  1001  079A  3474               	retlw	0
  1002  079B  3400               	retlw	0BCh
  1003  079C  34BC               	retlw	0A3h
  1004  079D  34A3               
  1005                           	retlw	0E2h
  1006  079E  34E2               	retlw	030h
  1007  079F  3430               	retlw	0BBh
  1008  07A0  34BB               	retlw	0D4h
  1009  07A1  34D4               
  1010                           	retlw	041h
  1011  07A2  3441               	retlw	0A5h
  1012  07A3  34A5               	retlw	0DFh
  1013  07A4  34DF               	retlw	04Ah
  1014  07A5  344A               
  1015                           	retlw	0D7h
  1016  07A6  34D7               	retlw	095h
  1017  07A7  3495               	retlw	0D8h
  1018  07A8  34D8               	retlw	03Dh
  1019  07A9  343D               
  1020                           	retlw	06Dh
  1021  07AA  346D               	retlw	0C4h
  1022  07AB  34C4               	retlw	0D1h
  1023  07AC  34D1               	retlw	0A4h
  1024  07AD  34A4               
  1025                           	retlw	0FBh
  1026  07AE  34FB               	retlw	0F4h
  1027  07AF  34F4               	retlw	0D6h
  1028  07B0  34D6               	retlw	0D3h
  1029  07B1  34D3               
  1030                           	retlw	06Ah
  1031  07B2  346A               	retlw	0E9h
  1032  07B3  34E9               	retlw	069h
  1033  07B4  3469               	retlw	043h
  1034  07B5  3443               
  1035                           	retlw	0FCh
  1036  07B6  34FC               	retlw	0D9h
  1037  07B7  34D9               	retlw	06Eh
  1038  07B8  346E               	retlw	034h
  1039  07B9  3434               
  1040                           	retlw	046h
  1041  07BA  3446               	retlw	088h
  1042  07BB  3488               	retlw	067h
  1043  07BC  3467               	retlw	0ADh
  1044  07BD  34AD               
  1045                           	retlw	0D0h
  1046  07BE  34D0               	retlw	0B8h
  1047  07BF  34B8               	retlw	060h
  1048  07C0  3460               	retlw	0DAh
  1049  07C1  34DA               
  1050                           	retlw	073h
  1051  07C2  3473               	retlw	02Dh
  1052  07C3  342D               	retlw	04h
  1053  07C4  3404               	retlw	044h
  1054  07C5  3444               
  1055                           	retlw	0E5h
  1056  07C6  34E5               	retlw	01Dh
  1057  07C7  341D               	retlw	03h
  1058  07C8  3403               	retlw	033h
  1059  07C9  3433               
  1060                           	retlw	05Fh
  1061  07CA  345F               	retlw	04Ch
  1062  07CB  344C               	retlw	0Ah
  1063  07CC  340A               	retlw	0AAh
  1064  07CD  34AA               
  1065                           	retlw	0C9h
  1066  07CE  34C9               	retlw	07Ch
  1067  07CF  347C               	retlw	0Dh
  1068  07D0  340D               	retlw	0DDh
  1069  07D1  34DD               
  1070                           	retlw	03Ch
  1071  07D2  343C               	retlw	071h
  1072  07D3  3471               	retlw	05h
  1073  07D4  3405               	retlw	050h
  1074  07D5  3450               
  1075                           	retlw	0AAh
  1076  07D6  34AA               	retlw	041h
  1077  07D7  3441               	retlw	02h
  1078  07D8  3402               	retlw	027h
  1079  07D9  3427               
  1080                           	retlw	010h
  1081  07DA  3410               	retlw	010h
  1082  07DB  3410               	retlw	0Bh
  1083  07DC  340B               	retlw	0BEh
  1084  07DD  34BE               
  1085                           	retlw	086h
  1086  07DE  3486               	retlw	020h
  1087  07DF  3420               	retlw	0Ch
  1088  07E0  340C               	retlw	0C9h
  1089  07E1  34C9               
  1090                           	retlw	025h
  1091  07E2  3425               	retlw	0B5h
  1092  07E3  34B5               	retlw	068h
  1093  07E4  3468               	retlw	057h
  1094  07E5  3457               
  1095                           	retlw	0B3h
  1096  07E6  34B3               	retlw	085h
  1097  07E7  3485               	retlw	06Fh
  1098  07E8  346F               	retlw	020h
  1099  07E9  3420               
  1100                           	retlw	09h
  1101  07EA  3409               	retlw	0D4h
  1102  07EB  34D4               	retlw	066h
  1103  07EC  3466               	retlw	0B9h
  1104  07ED  34B9               
  1105                           	retlw	09Fh
  1106  07EE  349F               	retlw	0E4h
  1107  07EF  34E4               	retlw	061h
  1108  07F0  3461               	retlw	0CEh
  1109  07F1  34CE               
  1110                           	retlw	0Eh
  1111  07F2  340E               	retlw	0F9h
  1112  07F3  34F9               	retlw	0DEh
  1113  07F4  34DE               	retlw	05Eh
  1114  07F5  345E               
  1115                           	retlw	098h
  1116  07F6  3498               	retlw	0C9h
  1117  07F7  34C9               	retlw	0D9h
  1118  07F8  34D9               	retlw	029h
  1119  07F9  3429               
  1120                           	retlw	022h
  1121  07FA  3422               	retlw	098h
  1122  07FB  3498               	retlw	0D0h
  1123  07FC  34D0               	retlw	0B0h
  1124  07FD  34B0               
  1125                           	retlw	0B4h
  1126  07FE  34B4               	retlw	0A8h
  1127  07FF  34A8               	retlw	0D7h
  1128  0800  34D7               	retlw	0C7h
  1129  0801  34C7               
  1130                           	retlw	017h
  1131  0802  3417               	retlw	03Dh
  1132  0803  343D               	retlw	0B3h
  1133  0804  34B3               	retlw	059h
  1134  0805  3459               
  1135                           	retlw	081h
  1136  0806  3481               	retlw	0Dh
  1137  0807  340D               	retlw	0B4h
  1138  0808  34B4               	retlw	02Eh
  1139  0809  342E               
  1140                           	retlw	03Bh
  1141  080A  343B               	retlw	05Ch
  1142  080B  345C               	retlw	0BDh
  1143  080C  34BD               	retlw	0B7h
  1144  080D  34B7               
  1145                           	retlw	0ADh
  1146  080E  34AD               	retlw	06Ch
  1147  080F  346C               	retlw	0BAh
  1148  0810  34BA               	retlw	0C0h
  1149  0811  34C0               
  1150                           	retlw	020h
  1151  0812  3420               	retlw	083h
  1152  0813  3483               	retlw	0B8h
  1153  0814  34B8               	retlw	0EDh
  1154  0815  34ED               
  1155                           	retlw	0B6h
  1156  0816  34B6               	retlw	0B3h
  1157  0817  34B3               	retlw	0BFh
  1158  0818  34BF               	retlw	09Ah
  1159  0819  349A               
  1160                           	retlw	0Ch
  1161  081A  340C               	retlw	0E2h
  1162  081B  34E2               	retlw	0B6h
  1163  081C  34B6               	retlw	03h
  1164  081D  3403               
  1165                           	retlw	09Ah
  1166  081E  349A               	retlw	0D2h
  1167  081F  34D2               	retlw	0B1h
  1168  0820  34B1               	retlw	074h
  1169  0821  3474               
  1170                           	retlw	039h
  1171  0822  3439               	retlw	047h
  1172  0823  3447               	retlw	0D5h
  1173  0824  34D5               	retlw	0EAh
  1174  0825  34EA               
  1175                           	retlw	0AFh
  1176  0826  34AF               	retlw	077h
  1177  0827  3477               	retlw	0D2h
  1178  0828  34D2               	retlw	09Dh
  1179  0829  349D               
  1180                           	retlw	015h
  1181  082A  3415               	retlw	026h
  1182  082B  3426               	retlw	0DBh
  1183  082C  34DB               	retlw	04h
  1184  082D  3404               
  1185                           	retlw	083h
  1186  082E  3483               	retlw	016h
  1187  082F  3416               	retlw	0DCh
  1188  0830  34DC               	retlw	073h
  1189  0831  3473               
  1190                           	retlw	012h
  1191  0832  3412               	retlw	0Bh
  1192  0833  340B               	retlw	063h
  1193  0834  3463               	retlw	0E3h
  1194  0835  34E3               
  1195                           	retlw	084h
  1196  0836  3484               	retlw	03Bh
  1197  0837  343B               	retlw	064h
  1198  0838  3464               	retlw	094h
  1199  0839  3494               
  1200                           	retlw	03Eh
  1201  083A  343E               	retlw	06Ah
  1202  083B  346A               	retlw	06Dh
  1203  083C  346D               	retlw	0Dh
  1204  083D  340D               
  1205                           	retlw	0A8h
  1206  083E  34A8               	retlw	05Ah
  1207  083F  345A               	retlw	06Ah
  1208  0840  346A               	retlw	07Ah
  1209  0841  347A               
  1210                           	retlw	0Bh
  1211  0842  340B               	retlw	0CFh
  1212  0843  34CF               	retlw	0Eh
  1213  0844  340E               	retlw	0E4h
  1214  0845  34E4               
  1215                           	retlw	09Dh
  1216  0846  349D               	retlw	0FFh
  1217  0847  34FF               	retlw	09h
  1218  0848  3409               	retlw	093h
  1219  0849  3493               
  1220                           	retlw	027h
  1221  084A  3427               	retlw	0AEh
  1222  084B  34AE               	retlw	0
  1223  084C  3400               	retlw	0Ah
  1224  084D  340A               
  1225                           	retlw	0B1h
  1226  084E  34B1               	retlw	09Eh
  1227  084F  349E               	retlw	07h
  1228  0850  3407               	retlw	07Dh
  1229  0851  347D               
  1230                           	retlw	044h
  1231  0852  3444               	retlw	093h
  1232  0853  3493               	retlw	0Fh
  1233  0854  340F               	retlw	0F0h
  1234  0855  34F0               
  1235                           	retlw	0D2h
  1236  0856  34D2               	retlw	0A3h
  1237  0857  34A3               	retlw	08h
  1238  0858  3408               	retlw	087h
  1239  0859  3487               
  1240                           	retlw	068h
  1241  085A  3468               	retlw	0F2h
  1242  085B  34F2               	retlw	01h
  1243  085C  3401               	retlw	01Eh
  1244  085D  341E               
  1245                           	retlw	0FEh
  1246  085E  34FE               	retlw	0C2h
  1247  085F  34C2               	retlw	06h
  1248  0860  3406               	retlw	069h
  1249  0861  3469               
  1250                           	retlw	05Dh
  1251  0862  345D               	retlw	057h
  1252  0863  3457               	retlw	062h
  1253  0864  3462               	retlw	0F7h
  1254  0865  34F7               
  1255                           	retlw	0CBh
  1256  0866  34CB               	retlw	067h
  1257  0867  3467               	retlw	065h
  1258  0868  3465               	retlw	080h
  1259  0869  3480               
  1260                           	retlw	071h
  1261  086A  3471               	retlw	036h
  1262  086B  3436               	retlw	06Ch
  1263  086C  346C               	retlw	019h
  1264  086D  3419               
  1265                           	retlw	0E7h
  1266  086E  34E7               	retlw	06h
  1267  086F  3406               	retlw	06Bh
  1268  0870  346B               	retlw	06Eh
  1269  0871  346E               
  1270                           	retlw	076h
  1271  0872  3476               	retlw	01Bh
  1272  0873  341B               	retlw	0D4h
  1273  0874  34D4               	retlw	0FEh
  1274  0875  34FE               
  1275                           	retlw	0E0h
  1276  0876  34E0               	retlw	02Bh
  1277  0877  342B               	retlw	0D3h
  1278  0878  34D3               	retlw	089h
  1279  0879  3489               
  1280                           	retlw	05Ah
  1281  087A  345A               	retlw	07Ah
  1282  087B  347A               	retlw	0DAh
  1283  087C  34DA               	retlw	010h
  1284  087D  3410               
  1285                           	retlw	0CCh
  1286  087E  34CC               	retlw	04Ah
  1287  087F  344A               	retlw	0DDh
  1288  0880  34DD               	retlw	067h
  1289  0881  3467               
  1290                           	retlw	06Fh
  1291  0882  346F               	retlw	0DFh
  1292  0883  34DF               	retlw	0B9h
  1293  0884  34B9               	retlw	0F9h
  1294  0885  34F9               
  1295                           	retlw	0F9h
  1296  0886  34F9               	retlw	0EFh
  1297  0887  34EF               	retlw	0BEh
  1298  0888  34BE               	retlw	08Eh
  1299  0889  348E               
  1300                           	retlw	043h
  1301  088A  3443               	retlw	0BEh
  1302  088B  34BE               	retlw	0B7h
  1303  088C  34B7               	retlw	017h
  1304  088D  3417               
  1305                           	retlw	0D5h
  1306  088E  34D5               	retlw	08Eh
  1307  088F  348E               	retlw	0B0h
  1308  0890  34B0               	retlw	060h
  1309  0891  3460               
  1310                           	retlw	0E8h
  1311  0892  34E8               	retlw	0A3h
  1312  0893  34A3               	retlw	0D6h
  1313  0894  34D6               	retlw	0D6h
  1314  0895  34D6               
  1315                           	retlw	07Eh
  1316  0896  347E               	retlw	093h
  1317  0897  3493               	retlw	0D1h
  1318  0898  34D1               	retlw	0A1h
  1319  0899  34A1               
  1320                           	retlw	0C4h
  1321  089A  34C4               	retlw	0C2h
  1322  089B  34C2               	retlw	0D8h
  1323  089C  34D8               	retlw	038h
  1324  089D  3438               
  1325                           	retlw	052h
  1326  089E  3452               	retlw	0F2h
  1327  089F  34F2               	retlw	0DFh
  1328  08A0  34DF               	retlw	04Fh
  1329  08A1  344F               
  1330                           	retlw	0F1h
  1331  08A2  34F1               	retlw	067h
  1332  08A3  3467               	retlw	0BBh
  1333  08A4  34BB               	retlw	0D1h
  1334  08A5  34D1               
  1335                           	retlw	067h
  1336  08A6  3467               	retlw	057h
  1337  08A7  3457               	retlw	0BCh
  1338  08A8  34BC               	retlw	0A6h
  1339  08A9  34A6               
  1340                           	retlw	0DDh
  1341  08AA  34DD               	retlw	06h
  1342  08AB  3406               	retlw	0B5h
  1343  08AC  34B5               	retlw	03Fh
  1344  08AD  343F               
  1345                           	retlw	04Bh
  1346  08AE  344B               	retlw	036h
  1347  08AF  3436               	retlw	0B2h
  1348  08B0  34B2               	retlw	048h
  1349  08B1  3448               
  1350                           	retlw	0DAh
  1351  08B2  34DA               	retlw	02Bh
  1352  08B3  342B               	retlw	0Dh
  1353  08B4  340D               	retlw	0D8h
  1354  08B5  34D8               
  1355                           	retlw	04Ch
  1356  08B6  344C               	retlw	01Bh
  1357  08B7  341B               	retlw	0Ah
  1358  08B8  340A               	retlw	0AFh
  1359  08B9  34AF               
  1360                           	retlw	0F6h
  1361  08BA  34F6               	retlw	04Ah
  1362  08BB  344A               	retlw	03h
  1363  08BC  3403               	retlw	036h
  1364  08BD  3436               
  1365                           	retlw	060h
  1366  08BE  3460               	retlw	07Ah
  1367  08BF  347A               	retlw	04h
  1368  08C0  3404               	retlw	041h
  1369  08C1  3441               
  1370                           	retlw	0C3h
  1371  08C2  34C3               	retlw	0EFh
  1372  08C3  34EF               	retlw	060h
  1373  08C4  3460               	retlw	0DFh
  1374  08C5  34DF               
  1375                           	retlw	055h
  1376  08C6  3455               	retlw	0DFh
  1377  08C7  34DF               	retlw	067h
  1378  08C8  3467               	retlw	0A8h
  1379  08C9  34A8               
  1380                           	retlw	0EFh
  1381  08CA  34EF               	retlw	08Eh
  1382  08CB  348E               	retlw	06Eh
  1383  08CC  346E               	retlw	031h
  1384  08CD  3431               
  1385                           	retlw	079h
  1386  08CE  3479               	retlw	0BEh
  1387  08CF  34BE               	retlw	069h
  1388  08D0  3469               	retlw	046h
  1389  08D1  3446               
  1390                           	retlw	08Ch
  1391  08D2  348C               	retlw	0B3h
  1392  08D3  34B3               	retlw	061h
  1393  08D4  3461               	retlw	0CBh
  1394  08D5  34CB               
  1395                           	retlw	01Ah
  1396  08D6  341A               	retlw	083h
  1397  08D7  3483               	retlw	066h
  1398  08D8  3466               	retlw	0BCh
  1399  08D9  34BC               
  1400                           	retlw	0A0h
  1401  08DA  34A0               	retlw	0D2h
  1402  08DB  34D2               	retlw	06Fh
  1403  08DC  346F               	retlw	025h
  1404  08DD  3425               
  1405                           	retlw	036h
  1406  08DE  3436               	retlw	0E2h
  1407  08DF  34E2               	retlw	068h
  1408  08E0  3468               	retlw	052h
  1409  08E1  3452               
  1410                           	retlw	095h
  1411  08E2  3495               	retlw	077h
  1412  08E3  3477               	retlw	0Ch
  1413  08E4  340C               	retlw	0CCh
  1414  08E5  34CC               
  1415                           	retlw	03h
  1416  08E6  3403               	retlw	047h
  1417  08E7  3447               	retlw	0Bh
  1418  08E8  340B               	retlw	0BBh
  1419  08E9  34BB               
  1420                           	retlw	0B9h
  1421  08EA  34B9               	retlw	016h
  1422  08EB  3416               	retlw	02h
  1423  08EC  3402               	retlw	022h
  1424  08ED  3422               
  1425                           	retlw	02Fh
  1426  08EE  342F               	retlw	026h
  1427  08EF  3426               	retlw	05h
  1428  08F0  3405               	retlw	055h
  1429  08F1  3455               
  1430                           	retlw	0BEh
  1431  08F2  34BE               	retlw	03Bh
  1432  08F3  343B               	retlw	0BAh
  1433  08F4  34BA               	retlw	0C5h
  1434  08F5  34C5               
  1435                           	retlw	028h
  1436  08F6  3428               	retlw	0Bh
  1437  08F7  340B               	retlw	0BDh
  1438  08F8  34BD               	retlw	0B2h
  1439  08F9  34B2               
  1440                           	retlw	092h
  1441  08FA  3492               	retlw	05Ah
  1442  08FB  345A               	retlw	0B4h
  1443  08FC  34B4               	retlw	02Bh
  1444  08FD  342B               
  1445                           	retlw	04h
  1446  08FE  3404               	retlw	06Ah
  1447  08FF  346A               	retlw	0B3h
  1448  0900  34B3               	retlw	05Ch
  1449  0901  345C               
  1450                           	retlw	0A7h
  1451  0902  34A7               	retlw	0FFh
  1452  0903  34FF               	retlw	0D7h
  1453  0904  34D7               	retlw	0C2h
  1454  0905  34C2               
  1455                           	retlw	031h
  1456  0906  3431               	retlw	0CFh
  1457  0907  34CF               	retlw	0D0h
  1458  0908  34D0               	retlw	0B5h
  1459  0909  34B5               
  1460                           	retlw	08Bh
  1461  090A  348B               	retlw	09Eh
  1462  090B  349E               	retlw	0D9h
  1463  090C  34D9               	retlw	02Ch
  1464  090D  342C               
  1465                           	retlw	01Dh
  1466  090E  341D               	retlw	0AEh
  1467  090F  34AE               	retlw	0DEh
  1468  0910  34DE               	retlw	05Bh
  1469  0911  345B               
  1470                           	retlw	0B0h
  1471  0912  34B0               	retlw	0C2h
  1472  0913  34C2               	retlw	064h
  1473  0914  3464               	retlw	09Bh
  1474  0915  349B               
  1475                           	retlw	026h
  1476  0916  3426               	retlw	0F2h
  1477  0917  34F2               	retlw	063h
  1478  0918  3463               	retlw	0ECh
  1479  0919  34EC               
  1480                           	retlw	09Ch
  1481  091A  349C               	retlw	0A3h
  1482  091B  34A3               	retlw	06Ah
  1483  091C  346A               	retlw	075h
  1484  091D  3475               
  1485                           	retlw	0Ah
  1486  091E  340A               	retlw	093h
  1487  091F  3493               	retlw	06Dh
  1488  0920  346D               	retlw	02h
  1489  0921  3402               
  1490                           	retlw	0A9h
  1491  0922  34A9               	retlw	06h
  1492  0923  3406               	retlw	09h
  1493  0924  3409               	retlw	09Ch
  1494  0925  349C               
  1495                           	retlw	03Fh
  1496  0926  343F               	retlw	036h
  1497  0927  3436               	retlw	0Eh
  1498  0928  340E               	retlw	0EBh
  1499  0929  34EB               
  1500                           	retlw	085h
  1501  092A  3485               	retlw	067h
  1502  092B  3467               	retlw	07h
  1503  092C  3407               	retlw	072h
  1504  092D  3472               
  1505                           	retlw	013h
  1506  092E  3413               	retlw	057h
  1507  092F  3457               	retlw	0
  1508  0930  3400               	retlw	05h
  1509  0931  3405               
  1510                           	retlw	082h
  1511  0932  3482               	retlw	04Ah
  1512  0933  344A               	retlw	0BFh
  1513  0934  34BF               	retlw	095h
  1514  0935  3495               
  1515                           	retlw	014h
  1516  0936  3414               	retlw	07Ah
  1517  0937  347A               	retlw	0B8h
  1518  0938  34B8               	retlw	0E2h
  1519  0939  34E2               
  1520                           	retlw	0AEh
  1521  093A  34AE               	retlw	02Bh
  1522  093B  342B               	retlw	0B1h
  1523  093C  34B1               	retlw	07Bh
  1524  093D  347B               
  1525                           	retlw	038h
  1526  093E  3438               	retlw	01Bh
  1527  093F  341B               	retlw	0B6h
  1528  0940  34B6               	retlw	0Ch
  1529  0941  340C               
  1530                           	retlw	09Bh
  1531  0942  349B               	retlw	08Eh
  1532  0943  348E               	retlw	0D2h
  1533  0944  34D2               	retlw	092h
  1534  0945  3492               
  1535                           	retlw	0Dh
  1536  0946  340D               	retlw	0BEh
  1537  0947  34BE               	retlw	0D5h
  1538  0948  34D5               	retlw	0E5h
  1539  0949  34E5               
  1540                           	retlw	0B7h
  1541  094A  34B7               	retlw	0EFh
  1542  094B  34EF               	retlw	0DCh
  1543  094C  34DC               	retlw	07Ch
  1544  094D  347C               
  1545                           	retlw	021h
  1546  094E  3421               	retlw	0DFh
  1547  094F  34DF               	retlw	0DBh
  1548  0950  34DB               	retlw	0Bh
  1549  0951  340B               
  1550                           	retlw	0D4h
  1551  0952  34D4               	retlw	0D2h
  1552  0953  34D2               	retlw	0D3h
  1553  0954  34D3               	retlw	086h
  1554  0955  3486               
  1555                           	retlw	042h
  1556  0956  3442               	retlw	0E2h
  1557  0957  34E2               	retlw	0D4h
  1558  0958  34D4               	retlw	0F1h
  1559  0959  34F1               
  1560                           	retlw	0F8h
  1561  095A  34F8               	retlw	0B3h
  1562  095B  34B3               	retlw	0DDh
  1563  095C  34DD               	retlw	068h
  1564  095D  3468               
  1565                           	retlw	06Eh
  1566  095E  346E               	retlw	083h
  1567  095F  3483               	retlw	0DAh
  1568  0960  34DA               	retlw	01Fh
  1569  0961  341F               
  1570                           	retlw	0CDh
  1571  0962  34CD               	retlw	016h
  1572  0963  3416               	retlw	0BEh
  1573  0964  34BE               	retlw	081h
  1574  0965  3481               
  1575                           	retlw	05Bh
  1576  0966  345B               	retlw	026h
  1577  0967  3426               	retlw	0B9h
  1578  0968  34B9               	retlw	0F6h
  1579  0969  34F6               
  1580                           	retlw	0E1h
  1581  096A  34E1               	retlw	077h
  1582  096B  3477               	retlw	0B0h
  1583  096C  34B0               	retlw	06Fh
  1584  096D  346F               
  1585                           	retlw	077h
  1586  096E  3477               	retlw	047h
  1587  096F  3447               	retlw	0B7h
  1588  0970  34B7               	retlw	018h
  1589  0971  3418               
  1590                           	retlw	0E6h
  1591  0972  34E6               	retlw	05Ah
  1592  0973  345A               	retlw	08h
  1593  0974  3408               	retlw	088h
  1594  0975  3488               
  1595                           	retlw	070h
  1596  0976  3470               	retlw	06Ah
  1597  0977  346A               	retlw	0Fh
  1598  0978  340F               	retlw	0FFh
  1599  0979  34FF               
  1600                           	retlw	0CAh
  1601  097A  34CA               	retlw	03Bh
  1602  097B  343B               	retlw	06h
  1603  097C  3406               	retlw	066h
  1604  097D  3466               
  1605                           	retlw	05Ch
  1606  097E  345C               	retlw	0Bh
  1607  097F  340B               	retlw	01h
  1608  0980  3401               	retlw	011h
  1609  0981  3411               
  1610                           	retlw	0FFh
  1611  0982  34FF               	retlw	09Eh
  1612  0983  349E               	retlw	065h
  1613  0984  3465               	retlw	08Fh
  1614  0985  348F               
  1615                           	retlw	069h
  1616  0986  3469               	retlw	0AEh
  1617  0987  34AE               	retlw	062h
  1618  0988  3462               	retlw	0F8h
  1619  0989  34F8               
  1620                           	retlw	0D3h
  1621  098A  34D3               	retlw	0FFh
  1622  098B  34FF               	retlw	06Bh
  1623  098C  346B               	retlw	061h
  1624  098D  3461               
  1625                           	retlw	045h
  1626  098E  3445               	retlw	0CFh
  1627  098F  34CF               	retlw	06Ch
  1628  0990  346C               	retlw	016h
  1629  0991  3416               
  1630                           	retlw	078h
  1631  0992  3478               	retlw	0E2h
  1632  0993  34E2               	retlw	0Ah
  1633  0994  340A               	retlw	0A0h
  1634  0995  34A0               
  1635                           	retlw	0EEh
  1636  0996  34EE               	retlw	0D2h
  1637  0997  34D2               	retlw	0Dh
  1638  0998  340D               	retlw	0D7h
  1639  0999  34D7               
  1640                           	retlw	054h
  1641  099A  3454               	retlw	083h
  1642  099B  3483               	retlw	04h
  1643  099C  3404               	retlw	04Eh
  1644  099D  344E               
  1645                           	retlw	0C2h
  1646  099E  34C2               	retlw	0B3h
  1647  099F  34B3               	retlw	03h
  1648  09A0  3403               	retlw	039h
  1649  09A1  3439               
  1650                           	retlw	061h
  1651  09A2  3461               	retlw	026h
  1652  09A3  3426               	retlw	067h
  1653  09A4  3467               	retlw	0A7h
  1654  09A5  34A7               
  1655                           	retlw	0F7h
  1656  09A6  34F7               	retlw	016h
  1657  09A7  3416               	retlw	060h
  1658  09A8  3460               	retlw	0D0h
  1659  09A9  34D0               
  1660                           	retlw	04Dh
  1661  09AA  344D               	retlw	047h
  1662  09AB  3447               	retlw	069h
  1663  09AC  3469               	retlw	049h
  1664  09AD  3449               
  1665                           	retlw	0DBh
  1666  09AE  34DB               	retlw	077h
  1667  09AF  3477               	retlw	06Eh
  1668  09B0  346E               	retlw	03Eh
  1669  09B1  343E               
  1670                           	retlw	04Ah
  1671  09B2  344A               	retlw	06Ah
  1672  09B3  346A               	retlw	0D1h
  1673  09B4  34D1               	retlw	0AEh
  1674  09B5  34AE               
  1675                           	retlw	0DCh
  1676  09B6  34DC               	retlw	05Ah
  1677  09B7  345A               	retlw	0D6h
  1678  09B8  34D6               	retlw	0D9h
  1679  09B9  34D9               
  1680                           	retlw	066h
  1681  09BA  3466               	retlw	0Bh
  1682  09BB  340B               	retlw	0DFh
  1683  09BC  34DF               	retlw	040h
  1684  09BD  3440               
  1685                           	retlw	0F0h
  1686  09BE  34F0               	retlw	03Bh
  1687  09BF  343B               	retlw	0D8h
  1688  09C0  34D8               	retlw	037h
  1689  09C1  3437               
  1690                           	retlw	053h
  1691  09C2  3453               	retlw	0AEh
  1692  09C3  34AE               	retlw	0BCh
  1693  09C4  34BC               	retlw	0A9h
  1694  09C5  34A9               
  1695                           	retlw	0C5h
  1696  09C6  34C5               	retlw	09Eh
  1697  09C7  349E               	retlw	0BBh
  1698  09C8  34BB               	retlw	0DEh
  1699  09C9  34DE               
  1700                           	retlw	07Fh
  1701  09CA  347F               	retlw	0CFh
  1702  09CB  34CF               	retlw	0B2h
  1703  09CC  34B2               	retlw	047h
  1704  09CD  3447               
  1705                           	retlw	0E9h
  1706  09CE  34E9               	retlw	0FFh
  1707  09CF  34FF               	retlw	0B5h
  1708  09D0  34B5               	retlw	030h
  1709  09D1  3430               
  1710                           	retlw	01Ch
  1711  09D2  341C               	retlw	0F2h
  1712  09D3  34F2               	retlw	0BDh
  1713  09D4  34BD               	retlw	0BDh
  1714  09D5  34BD               
  1715                           	retlw	08Ah
  1716  09D6  348A               	retlw	0C2h
  1717  09D7  34C2               	retlw	0BAh
  1718  09D8  34BA               	retlw	0CAh
  1719  09D9  34CA               
  1720                           	retlw	030h
  1721  09DA  3430               	retlw	093h
  1722  09DB  3493               	retlw	0B3h
  1723  09DC  34B3               	retlw	053h
  1724  09DD  3453               
  1725                           	retlw	0A6h
  1726  09DE  34A6               	retlw	0A3h
  1727  09DF  34A3               	retlw	0B4h
  1728  09E0  34B4               	retlw	024h
  1729  09E1  3424               
  1730                           	retlw	05h
  1731  09E2  3405               	retlw	036h
  1732  09E3  3436               	retlw	0D0h
  1733  09E4  34D0               	retlw	0BAh
  1734  09E5  34BA               
  1735                           	retlw	093h
  1736  09E6  3493               	retlw	06h
  1737  09E7  3406               	retlw	0D7h
  1738  09E8  34D7               	retlw	0CDh
  1739  09E9  34CD               
  1740                           	retlw	029h
  1741  09EA  3429               	retlw	057h
  1742  09EB  3457               	retlw	0DEh
  1743  09EC  34DE               	retlw	054h
  1744  09ED  3454               
  1745                           	retlw	0BFh
  1746  09EE  34BF               	retlw	067h
  1747  09EF  3467               	retlw	0D9h
  1748  09F0  34D9               	retlw	023h
  1749  09F1  3423               
  1750                           	retlw	02Eh
  1751  09F2  342E               	retlw	07Ah
  1752  09F3  347A               	retlw	066h
  1753  09F4  3466               	retlw	0B3h
  1754  09F5  34B3               
  1755                           	retlw	0B8h
  1756  09F6  34B8               	retlw	04Ah
  1757  09F7  344A               	retlw	061h
  1758  09F8  3461               	retlw	0C4h
  1759  09F9  34C4               
  1760                           	retlw	02h
  1761  09FA  3402               	retlw	01Bh
  1762  09FB  341B               	retlw	068h
  1763  09FC  3468               	retlw	05Dh
  1764  09FD  345D               
  1765                           	retlw	094h
  1766  09FE  3494               	retlw	02Bh
  1767  09FF  342B               	retlw	06Fh
  1768  0A00  346F               	retlw	02Ah
  1769  0A01  342A               
  1770                           	retlw	037h
  1771  0A02  3437               	retlw	0BEh
  1772  0A03  34BE               	retlw	0Bh
  1773  0A04  340B               	retlw	0B4h
  1774  0A05  34B4               
  1775                           	retlw	0A1h
  1776  0A06  34A1               	retlw	08Eh
  1777  0A07  348E               	retlw	0Ch
  1778  0A08  340C               	retlw	0C3h
  1779  0A09  34C3               
  1780                           	retlw	01Bh
  1781  0A0A  341B               	retlw	0DFh
  1782  0A0B  34DF               	retlw	05h
  1783  0A0C  3405               	retlw	05Ah
  1784  0A0D  345A               
  1785                           	retlw	08Dh
  1786  0A0E  348D               	retlw	0EFh
  1787  0A0F  34EF               	retlw	02h
  1788  0A10  3402               	retlw	02Dh
  1789  0A11  342D               
  1790                           	global __end_of_crc32_lookup_table
  1791                           __end_of_crc32_lookup_table:
  1792  0A12                     psect	stringtext
  1793                           	file	"./crcLIBhex.h"
  1794                           	line	61
  1795                           _CRC32_POLYNOMIAL:
  1796  0A12                     	retlw	0B7h
  1797  0A12  34B7               	retlw	01Dh
  1798  0A13  341D               	retlw	0C1h
  1799  0A14  34C1               	retlw	04h
  1800  0A15  3404               
  1801                           	global __end_of_CRC32_POLYNOMIAL
  1802                           __end_of_CRC32_POLYNOMIAL:
  1803  0A16                     	global	_CRC16_INIT
  1804                           psect	stringtext
  1805                           	file	"./crcLIBhex.h"
  1806                           	line	60
  1807                           _CRC16_INIT:
  1808  0A16                     	retlw	0FFh
  1809  0A16  34FF               	retlw	0FFh
  1810  0A17  34FF               
  1811                           	global __end_of_CRC16_INIT
  1812                           __end_of_CRC16_INIT:
  1813  0A18                     	global	_CRC16_POLYNOMIAL
  1814                           psect	stringtext
  1815                           	file	"./crcLIBhex.h"
  1816                           	line	59
  1817                           _CRC16_POLYNOMIAL:
  1818  0A18                     	retlw	05h
  1819  0A18  3405               	retlw	080h
  1820  0A19  3480               
  1821                           	global __end_of_CRC16_POLYNOMIAL
  1822                           __end_of_CRC16_POLYNOMIAL:
  1823  0A1A                     	global	_CRC8_INIT
  1824                           psect	stringtext
  1825                           	file	"./crcLIBhex.h"
  1826                           	line	58
  1827                           _CRC8_INIT:
  1828  0A1A                     	retlw	low(0)
  1829  0A1A  3400               	retlw	high(0)
  1830  0A1B  3400               
  1831                           	global __end_of_CRC8_INIT
  1832                           __end_of_CRC8_INIT:
  1833  0A1C                     	global	_CRC8_POLYNOMIAL
  1834                           psect	stringtext
  1835                           	file	"./crcLIBhex.h"
  1836                           	line	57
  1837                           _CRC8_POLYNOMIAL:
  1838  0A1C                     	retlw	018h
  1839  0A1C  3418               	retlw	0
  1840  0A1D  3400               
  1841                           	global __end_of_CRC8_POLYNOMIAL
  1842                           __end_of_CRC8_POLYNOMIAL:
  1843  0A1E                     	global	_crc32_lookup_table
  1844                           	global	_CRC16_INIT
  1845                           	global	_CRC16_POLYNOMIAL
  1846                           	global	_CRC8_INIT
  1847                           	global	_CRC8_POLYNOMIAL
  1848                           	global	CONVERT_Data_11Byte@F1517
  1849                           	global	CONVERT_Data_6Byte@F1506
  1850                           	global	CONVERT_Data_5Byte@F1495
  1851                           	global	ISR@F1525
  1852                           	global	CONVERT_Data_6Byte@F1503
  1853                           	global	CONVERT_Data_6Byte@F1501
  1854                           	global	CONVERT_Data_5Byte@F1492
  1855                           	global	CONVERT_Data_5Byte@F1490
  1856                           	global	ISR@F1523
  1857                           	global	ISR@F1521
  1858                           	global	CONVERT_Data_11Byte@F1514
  1859                           	global	CONVERT_Data_11Byte@F1512
  1860                           	global	_INTCON
  1861                           _INTCON	set	0xB
  1862  000B                     	global	_PIR2bits
  1863                           _PIR2bits	set	0xD
  1864  000D                     	global	_INTCONbits
  1865                           _INTCONbits	set	0xB
  1866  000B                     	global	_TXREG
  1867                           _TXREG	set	0x19
  1868  0019                     	global	_RCREG
  1869                           _RCREG	set	0x1A
  1870  001A                     	global	_PIR1bits
  1871                           _PIR1bits	set	0xC
  1872  000C                     	global	_RCSTAbits
  1873                           _RCSTAbits	set	0x18
  1874  0018                     	global	_PIE1bits
  1875                           _PIE1bits	set	0x8C
  1876  008C                     	global	_SPBRG
  1877                           _SPBRG	set	0x99
  1878  0099                     	global	_TXSTAbits
  1879                           _TXSTAbits	set	0x98
  1880  0098                     	global	_TRISC6
  1881                           _TRISC6	set	0x43E
  1882  043E                     	global	_TRISC7
  1883                           _TRISC7	set	0x43F
  1884  043F                     	global	_EEDATA
  1885                           _EEDATA	set	0x10C
  1886  010C                     	global	_EEADR
  1887                           _EEADR	set	0x10D
  1888  010D                     	global	_EECON2
  1889                           _EECON2	set	0x18D
  1890  018D                     	global	_EECON1bits
  1891                           _EECON1bits	set	0x18C
  1892  018C                     ; #config settings
  1893                           global __CFG_FOSC$INTRC_CLKOUT
  1894                           __CFG_FOSC$INTRC_CLKOUT equ 0x0
  1895  0000                     global __CFG_WDTE$OFF
  1896                           __CFG_WDTE$OFF equ 0x0
  1897  0000                     global __CFG_PWRTE$OFF
  1898                           __CFG_PWRTE$OFF equ 0x0
  1899  0000                     global __CFG_MCLRE$ON
  1900                           __CFG_MCLRE$ON equ 0x0
  1901  0000                     global __CFG_CP$OFF
  1902                           __CFG_CP$OFF equ 0x0
  1903  0000                     global __CFG_CPD$OFF
  1904                           __CFG_CPD$OFF equ 0x0
  1905  0000                     global __CFG_BOREN$ON
  1906                           __CFG_BOREN$ON equ 0x0
  1907  0000                     global __CFG_IESO$ON
  1908                           __CFG_IESO$ON equ 0x0
  1909  0000                     global __CFG_FCMEN$ON
  1910                           __CFG_FCMEN$ON equ 0x0
  1911  0000                     global __CFG_LVP$ON
  1912                           __CFG_LVP$ON equ 0x0
  1913  0000                     global __CFG_BOR4V$BOR40V
  1914                           __CFG_BOR4V$BOR40V equ 0x0
  1915  0000                     global __CFG_WRT$OFF
  1916                           __CFG_WRT$OFF equ 0x0
  1917  0000                     	file	"C:\Users\vanda\AppData\Local\Temp\s884."
  1918                           	line	#
  1919                           psect cinit,class=CODE,delta=2
  1920                           global start_initialization
  1921                           start_initialization:
  1922  0015                     
  1923                           global __initialization
  1924                           __initialization:
  1925  0015                     psect	bssBANK0,class=BANK0,space=1,noexec
  1926                           global __pbssBANK0
  1927                           __pbssBANK0:
  1928  0069                     CONVERT_Data_11Byte@F1517:
  1929  0069                            ds      2
  1930  0069                     
  1931                           CONVERT_Data_6Byte@F1506:
  1932  006B                            ds      2
  1933  006B                     
  1934                           CONVERT_Data_5Byte@F1495:
  1935  006D                            ds      2
  1936  006D                     
  1937                           psect	dataBANK0,class=BANK0,space=1,noexec
  1938                           global __pdataBANK0
  1939                           __pdataBANK0:
  1940  0060                     	file	"main.c"
  1941                           	line	46
  1942                           _data_response_8byte:
  1943  0060                            ds      9
  1944  0060                     
  1945                           psect	bssBANK1,class=BANK1,space=1,noexec
  1946                           global __pbssBANK1
  1947                           __pbssBANK1:
  1948  00A0                     ISR@F1525:
  1949  00A0                            ds      8
  1950  00A0                     
  1951                           CONVERT_Data_6Byte@F1503:
  1952  00A8                            ds      6
  1953  00A8                     
  1954                           CONVERT_Data_6Byte@F1501:
  1955  00AE                            ds      6
  1956  00AE                     
  1957                           CONVERT_Data_5Byte@F1492:
  1958  00B4                            ds      5
  1959  00B4                     
  1960                           CONVERT_Data_5Byte@F1490:
  1961  00B9                            ds      5
  1962  00B9                     
  1963                           ISR@F1523:
  1964  00BE                            ds      2
  1965  00BE                     
  1966                           ISR@F1521:
  1967  00C0                            ds      2
  1968  00C0                     
  1969                           psect	dataBANK1,class=BANK1,space=1,noexec
  1970                           global __pdataBANK1
  1971                           __pdataBANK1:
  1972  00E4                     	file	"main.c"
  1973                           	line	45
  1974                           _data_response_7byte:
  1975  00E4                            ds      8
  1976  00E4                     
  1977                           psect	bssBANK3,class=BANK3,space=1,noexec
  1978                           global __pbssBANK3
  1979                           __pbssBANK3:
  1980  0190                     CONVERT_Data_11Byte@F1514:
  1981  0190                            ds      11
  1982  0190                     
  1983                           CONVERT_Data_11Byte@F1512:
  1984  019B                            ds      11
  1985  019B                     
  1986                           psect	dataBANK3,class=BANK3,space=1,noexec
  1987                           global __pdataBANK3
  1988                           __pdataBANK3:
  1989  01A6                     	file	"main.c"
  1990                           	line	44
  1991                           _data_response_13byte:
  1992  01A6                            ds      14
  1993  01A6                     
  1994                           	file	"C:\Users\vanda\AppData\Local\Temp\s884."
  1995                           	line	#
  1996                           global btemp
  1997                           psect inittext,class=CODE,delta=2
  1998                           global init_fetch0,btemp
  1999                           ;	Called with low address in FSR and high address in W
  2000                           init_fetch0:
  2001  05ED                     	movf btemp,w
  2002  05ED  087E               	movwf pclath
  2003  05EE  008A               	movf btemp+1,w
  2004  05EF  087F               	movwf pc
  2005  05F0  0082               global init_ram0
  2006                           ;Called with:
  2007                           ;	high address of idata address in btemp 
  2008                           ;	low address of idata address in btemp+1 
  2009                           ;	low address of data in FSR
  2010                           ;	high address + 1 of data in btemp-1
  2011                           init_ram0:
  2012  05F1                     	fcall init_fetch0
  2013  05F1  120A  118A  25ED  120A  118A  	movwf indf,f
  2014  05F6  0080               	incf fsr,f
  2015  05F7  0A84               	movf fsr,w
  2016  05F8  0804               	xorwf btemp-1,w
  2017  05F9  067D               	btfsc status,2
  2018  05FA  1903               	retlw 0
  2019  05FB  3400               	incf btemp+1,f
  2020  05FC  0AFF               	btfsc status,2
  2021  05FD  1903               	incf btemp,f
  2022  05FE  0AFE               	goto init_ram0
  2023  05FF  2DF1               ; Initialize objects allocated to BANK3
  2024                           psect cinit,class=CODE,delta=2,merge=1
  2025                           global init_ram0, __pidataBANK3
  2026                           	bsf	status, 7	;select IRP bank2
  2027  0015  1783               	movlw low(__pdataBANK3+14)
  2028  0016  30B4               	movwf btemp-1,f
  2029  0017  00FD               	movlw high(__pidataBANK3)
  2030  0018  3017               	movwf btemp,f
  2031  0019  00FE               	movlw low(__pidataBANK3)
  2032  001A  309B               	movwf btemp+1,f
  2033  001B  00FF               	movlw low(__pdataBANK3)
  2034  001C  30A6               	movwf fsr,f
  2035  001D  0084               	fcall init_ram0
  2036  001E  120A  118A  25F1  120A  118A  ; Initialize objects allocated to BANK1
  2037                           psect cinit,class=CODE,delta=2,merge=1
  2038                           global init_ram0, __pidataBANK1
  2039                           	bcf	status, 7	;select IRP bank0
  2040  0023  1383               	movlw low(__pdataBANK1+8)
  2041  0024  30EC               	movwf btemp-1,f
  2042  0025  00FD               	movlw high(__pidataBANK1)
  2043  0026  3017               	movwf btemp,f
  2044  0027  00FE               	movlw low(__pidataBANK1)
  2045  0028  306E               	movwf btemp+1,f
  2046  0029  00FF               	movlw low(__pdataBANK1)
  2047  002A  30E4               	movwf fsr,f
  2048  002B  0084               	fcall init_ram0
  2049  002C  120A  118A  25F1  120A  118A  ; Initialize objects allocated to BANK0
  2050                           psect cinit,class=CODE,delta=2,merge=1
  2051                           global init_ram0, __pidataBANK0
  2052                           	movlw low(__pdataBANK0+9)
  2053  0031  3069               	movwf btemp-1,f
  2054  0032  00FD               	movlw high(__pidataBANK0)
  2055  0033  3017               	movwf btemp,f
  2056  0034  00FE               	movlw low(__pidataBANK0)
  2057  0035  3076               	movwf btemp+1,f
  2058  0036  00FF               	movlw low(__pdataBANK0)
  2059  0037  3060               	movwf fsr,f
  2060  0038  0084               	fcall init_ram0
  2061  0039  120A  118A  25F1  120A  118A  	line	#
  2062                           psect clrtext,class=CODE,delta=2
  2063                           global clear_ram0
  2064                           ;	Called with FSR containing the base address, and
  2065                           ;	W with the last address+1
  2066                           clear_ram0:
  2067  1766                     	clrwdt			;clear the watchdog before getting into this loop
  2068  1766  0064               clrloop0:
  2069  1767                     	clrf	indf		;clear RAM location pointed to by FSR
  2070  1767  0180               	incf	fsr,f		;increment pointer
  2071  1768  0A84               	xorwf	fsr,w		;XOR with final address
  2072  1769  0604               	btfsc	status,2	;have we reached the end yet?
  2073  176A  1903               	retlw	0		;all done for this memory range, return
  2074  176B  3400               	xorwf	fsr,w		;XOR again to restore value
  2075  176C  0604               	goto	clrloop0		;do the next byte
  2076  176D  2F67               
  2077                           ; Clear objects allocated to BANK3
  2078                           psect cinit,class=CODE,delta=2,merge=1
  2079                           	bsf	status, 7	;select IRP bank2
  2080  003E  1783               	movlw	low(__pbssBANK3)
  2081  003F  3090               	movwf	fsr
  2082  0040  0084               	movlw	low((__pbssBANK3)+016h)
  2083  0041  30A6               	fcall	clear_ram0
  2084  0042  160A  118A  2766  120A  118A  ; Clear objects allocated to BANK1
  2085                           psect cinit,class=CODE,delta=2,merge=1
  2086                           	bcf	status, 7	;select IRP bank0
  2087  0047  1383               	movlw	low(__pbssBANK1)
  2088  0048  30A0               	movwf	fsr
  2089  0049  0084               	movlw	low((__pbssBANK1)+022h)
  2090  004A  30C2               	fcall	clear_ram0
  2091  004B  160A  118A  2766  120A  118A  ; Clear objects allocated to BANK0
  2092                           psect cinit,class=CODE,delta=2,merge=1
  2093                           	clrf	((__pbssBANK0)+0)&07Fh
  2094  0050  01E9               	clrf	((__pbssBANK0)+1)&07Fh
  2095  0051  01EA               	clrf	((__pbssBANK0)+2)&07Fh
  2096  0052  01EB               	clrf	((__pbssBANK0)+3)&07Fh
  2097  0053  01EC               	clrf	((__pbssBANK0)+4)&07Fh
  2098  0054  01ED               	clrf	((__pbssBANK0)+5)&07Fh
  2099  0055  01EE               psect cinit,class=CODE,delta=2,merge=1
  2100                           global end_of_initialization,__end_of__initialization
  2101                           
  2102                           ;End of C runtime variable initialization code
  2103                           
  2104                           end_of_initialization:
  2105  0056                     __end_of__initialization:
  2106  0056                     clrf status
  2107  0056  0183               ljmp _main	;jump to C main() function
  2108  0057  120A  158A  2EB7   psect	cstackBANK1,class=BANK1,space=1,noexec
  2109                           global __pcstackBANK1
  2110                           __pcstackBANK1:
  2111  00C2                     ?_EEPROM_Write:	; 1 bytes @ 0x0
  2112  00C2                     ??_config_interrupt:	; 1 bytes @ 0x0
  2113  00C2                     	global	?___aldiv
  2114                           ?___aldiv:	; 4 bytes @ 0x0
  2115  00C2                     	global	EEPROM_Write@address
  2116                           EEPROM_Write@address:	; 2 bytes @ 0x0
  2117  00C2                     	global	___aldiv@divisor
  2118                           ___aldiv@divisor:	; 4 bytes @ 0x0
  2119  00C2                     	ds	2
  2120  00C2                     	global	EEPROM_Write@data
  2121                           EEPROM_Write@data:	; 1 bytes @ 0x2
  2122  00C4                     	ds	1
  2123  00C4                     ??_EEPROM_Write:	; 1 bytes @ 0x3
  2124  00C5                     	ds	1
  2125  00C5                     	global	___aldiv@dividend
  2126                           ___aldiv@dividend:	; 4 bytes @ 0x4
  2127  00C6                     	ds	4
  2128  00C6                     ??___aldiv:	; 1 bytes @ 0x8
  2129  00CA                     	ds	1
  2130  00CA                     	global	___aldiv@counter
  2131                           ___aldiv@counter:	; 1 bytes @ 0x9
  2132  00CB                     	ds	1
  2133  00CB                     	global	___aldiv@sign
  2134                           ___aldiv@sign:	; 1 bytes @ 0xA
  2135  00CC                     	ds	1
  2136  00CC                     	global	___aldiv@quotient
  2137                           ___aldiv@quotient:	; 4 bytes @ 0xB
  2138  00CD                     	ds	4
  2139  00CD                     ?_UART_Init:	; 1 bytes @ 0xF
  2140  00D1                     	global	UART_Init@baudrate
  2141                           UART_Init@baudrate:	; 4 bytes @ 0xF
  2142  00D1                     	ds	4
  2143  00D1                     ??_UART_Init:	; 1 bytes @ 0x13
  2144  00D5                     	ds	12
  2145  00D5                     	global	UART_Init@x
  2146                           UART_Init@x:	; 2 bytes @ 0x1F
  2147  00E1                     	ds	2
  2148  00E1                     ??_main:	; 1 bytes @ 0x21
  2149  00E3                     	ds	1
  2150  00E3                     psect	cstackCOMMON,class=COMMON,space=1,noexec
  2151                           global __pcstackCOMMON
  2152                           __pcstackCOMMON:
  2153  0070                     ?_UART_TX_Empty:	; 1 bytes @ 0x0
  2154  0070                     ??_UART_TX_Empty:	; 1 bytes @ 0x0
  2155  0070                     ?_UART_Read:	; 1 bytes @ 0x0
  2156  0070                     ??_UART_Read:	; 1 bytes @ 0x0
  2157  0070                     ?_UART_Write:	; 1 bytes @ 0x0
  2158  0070                     ??_UART_Write:	; 1 bytes @ 0x0
  2159  0070                     ?_UART_Read_Text:	; 1 bytes @ 0x0
  2160  0070                     ?_reflect_byte:	; 1 bytes @ 0x0
  2161  0070                     ?_EEPROM_Read:	; 1 bytes @ 0x0
  2162  0070                     ?_ISR:	; 1 bytes @ 0x0
  2163  0070                     ?_config_interrupt:	; 1 bytes @ 0x0
  2164  0070                     ?_main:	; 1 bytes @ 0x0
  2165  0070                     ?i1_EEPROM_Write:	; 1 bytes @ 0x0
  2166  0070                     	global	?_crc16
  2167                           ?_crc16:	; 2 bytes @ 0x0
  2168  0070                     	global	UART_Write@datau
  2169                           UART_Write@datau:	; 1 bytes @ 0x0
  2170  0070                     	global	UART_Read_Text@length
  2171                           UART_Read_Text@length:	; 2 bytes @ 0x0
  2172  0070                     	global	crc16@dataLen
  2173                           crc16@dataLen:	; 2 bytes @ 0x0
  2174  0070                     	global	reflect_byte@byte
  2175                           reflect_byte@byte:	; 2 bytes @ 0x0
  2176  0070                     	global	EEPROM_Read@address
  2177                           EEPROM_Read@address:	; 2 bytes @ 0x0
  2178  0070                     	global	i1EEPROM_Write@address
  2179                           i1EEPROM_Write@address:	; 2 bytes @ 0x0
  2180  0070                     	ds	1
  2181  0070                     ?_UART_Write_Text_Length:	; 1 bytes @ 0x1
  2182  0071                     	global	UART_Write_Text_Length@str
  2183                           UART_Write_Text_Length@str:	; 2 bytes @ 0x1
  2184  0071                     	ds	1
  2185  0071                     ??_UART_Read_Text:	; 1 bytes @ 0x2
  2186  0072                     ??_crc16:	; 1 bytes @ 0x2
  2187  0072                     ??_EEPROM_Read:	; 1 bytes @ 0x2
  2188  0072                     	global	reflect_byte@byte_ref
  2189                           reflect_byte@byte_ref:	; 1 bytes @ 0x2
  2190  0072                     	global	i1EEPROM_Write@data
  2191                           i1EEPROM_Write@data:	; 1 bytes @ 0x2
  2192  0072                     	ds	1
  2193  0072                     ??i1_EEPROM_Write:	; 1 bytes @ 0x3
  2194  0073                     	global	reflect_byte@index
  2195                           reflect_byte@index:	; 1 bytes @ 0x3
  2196  0073                     	global	UART_Write_Text_Length@length
  2197                           UART_Write_Text_Length@length:	; 2 bytes @ 0x3
  2198  0073                     	ds	1
  2199  0073                     ??_reflect_byte:	; 1 bytes @ 0x4
  2200  0074                     	global	UART_Read_Text@Output
  2201                           UART_Read_Text@Output:	; 1 bytes @ 0x4
  2202  0074                     	ds	1
  2203  0074                     ??_UART_Write_Text_Length:	; 1 bytes @ 0x5
  2204  0075                     	global	UART_Read_Text@i
  2205                           UART_Read_Text@i:	; 2 bytes @ 0x5
  2206  0075                     	global	UART_Write_Text_Length@count
  2207                           UART_Write_Text_Length@count:	; 2 bytes @ 0x5
  2208  0075                     	ds	3
  2209  0075                     	global	reflect_byte@temp
  2210                           reflect_byte@temp:	; 1 bytes @ 0x8
  2211  0078                     	ds	1
  2212  0078                     	global	reflect_byte@j
  2213                           reflect_byte@j:	; 1 bytes @ 0x9
  2214  0079                     	ds	1
  2215  0079                     	global	reflect_byte@i
  2216                           reflect_byte@i:	; 1 bytes @ 0xA
  2217  007A                     	ds	2
  2218  007A                     ?_CONVERT_Data_5Byte:	; 1 bytes @ 0xC
  2219  007C                     ?_CONVERT_Data_6Byte:	; 1 bytes @ 0xC
  2220  007C                     ?_CONVERT_Data_11Byte:	; 1 bytes @ 0xC
  2221  007C                     	global	CONVERT_Data_5Byte@output_ref
  2222                           CONVERT_Data_5Byte@output_ref:	; 1 bytes @ 0xC
  2223  007C                     	global	CONVERT_Data_6Byte@output_ref
  2224                           CONVERT_Data_6Byte@output_ref:	; 1 bytes @ 0xC
  2225  007C                     	global	CONVERT_Data_11Byte@output_ref
  2226                           CONVERT_Data_11Byte@output_ref:	; 1 bytes @ 0xC
  2227  007C                     	ds	1
  2228  007C                     psect	cstackBANK0,class=BANK0,space=1,noexec
  2229                           global __pcstackBANK0
  2230                           __pcstackBANK0:
  2231  0020                     	global	crc16@iByte
  2232                           crc16@iByte:	; 2 bytes @ 0x0
  2233  0020                     	ds	2
  2234  0020                     	global	crc16@crcData
  2235                           crc16@crcData:	; 1 bytes @ 0x2
  2236  0022                     	ds	1
  2237  0022                     	global	crc16@i
  2238                           crc16@i:	; 1 bytes @ 0x3
  2239  0023                     	ds	1
  2240  0023                     	global	crc16@crc
  2241                           crc16@crc:	; 4 bytes @ 0x4
  2242  0024                     	ds	4
  2243  0024                     ??_CONVERT_Data_5Byte:	; 1 bytes @ 0x8
  2244  0028                     ??_CONVERT_Data_6Byte:	; 1 bytes @ 0x8
  2245  0028                     ??_CONVERT_Data_11Byte:	; 1 bytes @ 0x8
  2246  0028                     	ds	2
  2247  0028                     	global	CONVERT_Data_5Byte@txt
  2248                           CONVERT_Data_5Byte@txt:	; 5 bytes @ 0xA
  2249  002A                     	global	CONVERT_Data_6Byte@txt
  2250                           CONVERT_Data_6Byte@txt:	; 6 bytes @ 0xA
  2251  002A                     	ds	2
  2252  002A                     	global	CONVERT_Data_11Byte@txt
  2253                           CONVERT_Data_11Byte@txt:	; 11 bytes @ 0xC
  2254  002C                     	ds	3
  2255  002C                     	global	CONVERT_Data_5Byte@input_ref
  2256                           CONVERT_Data_5Byte@input_ref:	; 5 bytes @ 0xF
  2257  002F                     	ds	1
  2258  002F                     	global	CONVERT_Data_6Byte@input_ref
  2259                           CONVERT_Data_6Byte@input_ref:	; 6 bytes @ 0x10
  2260  0030                     	ds	4
  2261  0030                     	global	CONVERT_Data_5Byte@output
  2262                           CONVERT_Data_5Byte@output:	; 2 bytes @ 0x14
  2263  0034                     	ds	2
  2264  0034                     	global	CONVERT_Data_5Byte@crc
  2265                           CONVERT_Data_5Byte@crc:	; 2 bytes @ 0x16
  2266  0036                     	global	CONVERT_Data_6Byte@output
  2267                           CONVERT_Data_6Byte@output:	; 2 bytes @ 0x16
  2268  0036                     	ds	1
  2269  0036                     	global	CONVERT_Data_11Byte@input_ref
  2270                           CONVERT_Data_11Byte@input_ref:	; 11 bytes @ 0x17
  2271  0037                     	ds	1
  2272  0037                     	global	CONVERT_Data_5Byte@input
  2273                           CONVERT_Data_5Byte@input:	; 1 bytes @ 0x18
  2274  0038                     	global	CONVERT_Data_6Byte@crc
  2275                           CONVERT_Data_6Byte@crc:	; 2 bytes @ 0x18
  2276  0038                     	ds	1
  2277  0038                     	global	CONVERT_Data_5Byte@i
  2278                           CONVERT_Data_5Byte@i:	; 2 bytes @ 0x19
  2279  0039                     	ds	1
  2280  0039                     	global	CONVERT_Data_6Byte@input
  2281                           CONVERT_Data_6Byte@input:	; 1 bytes @ 0x1A
  2282  003A                     	ds	1
  2283  003A                     	global	CONVERT_Data_6Byte@i
  2284                           CONVERT_Data_6Byte@i:	; 2 bytes @ 0x1B
  2285  003B                     	ds	7
  2286  003B                     	global	CONVERT_Data_11Byte@input
  2287                           CONVERT_Data_11Byte@input:	; 1 bytes @ 0x22
  2288  0042                     	ds	1
  2289  0042                     	global	CONVERT_Data_11Byte@output
  2290                           CONVERT_Data_11Byte@output:	; 2 bytes @ 0x23
  2291  0043                     	ds	2
  2292  0043                     	global	CONVERT_Data_11Byte@crc
  2293                           CONVERT_Data_11Byte@crc:	; 2 bytes @ 0x25
  2294  0045                     	ds	2
  2295  0045                     	global	CONVERT_Data_11Byte@i
  2296                           CONVERT_Data_11Byte@i:	; 2 bytes @ 0x27
  2297  0047                     	ds	2
  2298  0047                     ??_ISR:	; 1 bytes @ 0x29
  2299  0049                     	ds	8
  2300  0049                     	global	ISR@data
  2301                           ISR@data:	; 8 bytes @ 0x31
  2302  0051                     	ds	8
  2303  0051                     	global	ISR@crc_code_read
  2304                           ISR@crc_code_read:	; 2 bytes @ 0x39
  2305  0059                     	ds	2
  2306  0059                     	global	ISR@address
  2307                           ISR@address:	; 2 bytes @ 0x3B
  2308  005B                     	ds	2
  2309  005B                     	global	ISR@crc_code_response
  2310                           ISR@crc_code_response:	; 2 bytes @ 0x3D
  2311  005D                     	ds	2
  2312  005D                     	global	ISR@i
  2313                           ISR@i:	; 1 bytes @ 0x3F
  2314  005F                     	ds	1
  2315  005F                     ;!
  2316                           ;!Data Sizes:
  2317                           ;!    Strings     0
  2318                           ;!    Constant    1036
  2319                           ;!    Data        31
  2320                           ;!    BSS         62
  2321                           ;!    Persistent  0
  2322                           ;!    Stack       0
  2323                           ;!
  2324                           ;!Auto Spaces:
  2325                           ;!    Space          Size  Autos    Used
  2326                           ;!    COMMON           14     13      13
  2327                           ;!    BANK0            80     64      79
  2328                           ;!    BANK1            80     34      76
  2329                           ;!    BANK3            96      0      36
  2330                           ;!    BANK2            96      0       0
  2331                           
  2332                           ;!
  2333                           ;!Pointer List with Targets:
  2334                           ;!
  2335                           ;!    CONVERT_Data_11Byte@output_ref	PTR unsigned char  size(1) Largest target is 2
  2336                           ;!		 -> ISR@crc_code_response(BANK0[2]), 
  2337                           ;!
  2338                           ;!    CONVERT_Data_11Byte@input	PTR unsigned char  size(1) Largest target is 14
  2339                           ;!		 -> data_response_13byte(BANK3[14]), 
  2340                           ;!
  2341                           ;!    CONVERT_Data_6Byte@output_ref	PTR unsigned char  size(1) Largest target is 2
  2342                           ;!		 -> ISR@crc_code_response(BANK0[2]), ISR@crc_code_read(BANK0[2]), 
  2343                           ;!
  2344                           ;!    CONVERT_Data_6Byte@input	PTR unsigned char  size(1) Largest target is 9
  2345                           ;!		 -> data_response_8byte(BANK0[9]), ISR@data(BANK0[8]), 
  2346                           ;!
  2347                           ;!    CONVERT_Data_5Byte@output_ref	PTR unsigned char  size(1) Largest target is 2
  2348                           ;!		 -> ISR@crc_code_response(BANK0[2]), 
  2349                           ;!
  2350                           ;!    CONVERT_Data_5Byte@input	PTR unsigned char  size(1) Largest target is 8
  2351                           ;!		 -> data_response_7byte(BANK1[8]), 
  2352                           ;!
  2353                           ;!    reflect_byte@byte_ref	PTR unsigned char  size(1) Largest target is 11
  2354                           ;!		 -> ISR@crc_code_response(BANK0[2]), ISR@crc_code_read(BANK0[2]), CONVERT_Data_11Byt
                                 e@input_ref(BANK0[11]), CONVERT_Data_6Byte@input_ref(BANK0[6]), 
  2355                           ;!		 -> CONVERT_Data_5Byte@input_ref(BANK0[5]), 
  2356                           ;!
  2357                           ;!    reflect_byte@byte	PTR unsigned char  size(2) Largest target is 14
  2358                           ;!		 -> data_response_8byte(BANK0[9]), data_response_7byte(BANK1[8]), data_response_13by
                                 te(BANK3[14]), ISR@data(BANK0[8]), 
  2359                           ;!		 -> CONVERT_Data_11Byte@output(BANK0[2]), CONVERT_Data_6Byte@output(BANK0[2]), CONVE
                                 RT_Data_5Byte@output(BANK0[2]), 
  2360                           ;!
  2361                           ;!    crc16@crcData	PTR unsigned char  size(1) Largest target is 11
  2362                           ;!		 -> CONVERT_Data_11Byte@txt(BANK0[11]), CONVERT_Data_6Byte@txt(BANK0[6]), CONVERT_Da
                                 ta_5Byte@txt(BANK0[5]), 
  2363                           ;!
  2364                           ;!    UART_Write_Text_Length@str	PTR unsigned char  size(2) Largest target is 14
  2365                           ;!		 -> data_response_8byte(BANK0[9]), data_response_7byte(BANK1[8]), data_response_13by
                                 te(BANK3[14]), 
  2366                           ;!
  2367                           ;!    UART_Read_Text@Output	PTR unsigned char  size(1) Largest target is 8
  2368                           ;!		 -> ISR@data(BANK0[8]), 
  2369                           ;!
  2370                           
  2371                           
  2372                           ;!
  2373                           ;!Critical Paths under _main in COMMON
  2374                           ;!
  2375                           ;!    None.
  2376                           ;!
  2377                           ;!Critical Paths under _ISR in COMMON
  2378                           ;!
  2379                           ;!    _ISR->_CONVERT_Data_11Byte
  2380                           ;!    _ISR->_CONVERT_Data_5Byte
  2381                           ;!    _ISR->_CONVERT_Data_6Byte
  2382                           ;!    _UART_Write_Text_Length->_UART_Write
  2383                           ;!    _CONVERT_Data_6Byte->_crc16
  2384                           ;!    _CONVERT_Data_5Byte->_crc16
  2385                           ;!    _CONVERT_Data_11Byte->_crc16
  2386                           ;!
  2387                           ;!Critical Paths under _main in BANK0
  2388                           ;!
  2389                           ;!    None.
  2390                           ;!
  2391                           ;!Critical Paths under _ISR in BANK0
  2392                           ;!
  2393                           ;!    _ISR->_CONVERT_Data_11Byte
  2394                           ;!    _CONVERT_Data_6Byte->_crc16
  2395                           ;!    _CONVERT_Data_5Byte->_crc16
  2396                           ;!    _CONVERT_Data_11Byte->_crc16
  2397                           ;!
  2398                           ;!Critical Paths under _main in BANK1
  2399                           ;!
  2400                           ;!    _main->_UART_Init
  2401                           ;!    _UART_Init->___aldiv
  2402                           ;!
  2403                           ;!Critical Paths under _ISR in BANK1
  2404                           ;!
  2405                           ;!    None.
  2406                           ;!
  2407                           ;!Critical Paths under _main in BANK3
  2408                           ;!
  2409                           ;!    None.
  2410                           ;!
  2411                           ;!Critical Paths under _ISR in BANK3
  2412                           ;!
  2413                           ;!    None.
  2414                           ;!
  2415                           ;!Critical Paths under _main in BANK2
  2416                           ;!
  2417                           ;!    None.
  2418                           ;!
  2419                           ;!Critical Paths under _ISR in BANK2
  2420                           ;!
  2421                           ;!    None.
  2422                           
  2423 ;;
  2424 ;;Main: autosize = 0, tempsize = 1, incstack = 0, save=0
  2425 ;;
  2426                           
  2427                           ;!
  2428                           ;!Call Graph Tables:
  2429                           ;!
  2430                           ;! ---------------------------------------------------------------------------------
  2431                           ;! (Depth) Function   	        Calls       Base Space   Used Autos Params    Refs
  2432                           ;! ---------------------------------------------------------------------------------
  2433                           ;! (0) _main                                                 1     1      0    4876
  2434                           ;!                                             33 BANK1      1     1      0
  2435                           ;!                       _EEPROM_Write
  2436                           ;!                          _UART_Init
  2437                           ;!                   _config_interrupt
  2438                           ;! ---------------------------------------------------------------------------------
  2439                           ;! (1) _config_interrupt                                     0     0      0       0
  2440                           ;! ---------------------------------------------------------------------------------
  2441                           ;! (1) _UART_Init                                           18    14      4     836
  2442                           ;!                                             15 BANK1     18    14      4
  2443                           ;!                            ___aldiv
  2444                           ;! ---------------------------------------------------------------------------------
  2445                           ;! (2) ___aldiv                                             15     7      8     604
  2446                           ;!                                              0 BANK1     15     7      8
  2447                           ;! ---------------------------------------------------------------------------------
  2448                           ;! (1) _EEPROM_Write                                         3     0      3    4040
  2449                           ;!                                              0 BANK1      3     0      3
  2450                           ;! ---------------------------------------------------------------------------------
  2451                           ;! Estimated maximum stack depth 2
  2452                           ;! ---------------------------------------------------------------------------------
  2453                           ;! (Depth) Function   	        Calls       Base Space   Used Autos Params    Refs
  2454                           ;! ---------------------------------------------------------------------------------
  2455                           ;! (3) _ISR                                                 23    23      0   16245
  2456                           ;!                                             41 BANK0     23    23      0
  2457                           ;!                _CONVERT_Data_11Byte
  2458                           ;!                 _CONVERT_Data_5Byte
  2459                           ;!                 _CONVERT_Data_6Byte
  2460                           ;!                        _EEPROM_Read
  2461                           ;!                     _UART_Read_Text
  2462                           ;!                      _UART_TX_Empty
  2463                           ;!             _UART_Write_Text_Length
  2464                           ;!                     i1_EEPROM_Write
  2465                           ;! ---------------------------------------------------------------------------------
  2466                           ;! (4) i1_EEPROM_Write                                       3     0      3     304
  2467                           ;!                                              0 COMMON     3     0      3
  2468                           ;! ---------------------------------------------------------------------------------
  2469                           ;! (4) _UART_Write_Text_Length                               6     2      4    1458
  2470                           ;!                                              1 COMMON     6     2      4
  2471                           ;!                         _UART_Write
  2472                           ;! ---------------------------------------------------------------------------------
  2473                           ;! (5) _UART_Write                                           1     1      0      22
  2474                           ;!                                              0 COMMON     1     1      0
  2475                           ;! ---------------------------------------------------------------------------------
  2476                           ;! (4) _UART_TX_Empty                                        0     0      0       0
  2477                           ;! ---------------------------------------------------------------------------------
  2478                           ;! (4) _UART_Read_Text                                       7     5      2     199
  2479                           ;!                                              0 COMMON     7     5      2
  2480                           ;!                          _UART_Read
  2481                           ;! ---------------------------------------------------------------------------------
  2482                           ;! (5) _UART_Read                                            0     0      0       0
  2483                           ;! ---------------------------------------------------------------------------------
  2484                           ;! (4) _EEPROM_Read                                          2     0      2     782
  2485                           ;!                                              0 COMMON     2     0      2
  2486                           ;! ---------------------------------------------------------------------------------
  2487                           ;! (4) _CONVERT_Data_6Byte                                  22    21      1    3500
  2488                           ;!                                             12 COMMON     1     0      1
  2489                           ;!                                              8 BANK0     21    21      0
  2490                           ;!                              _crc16
  2491                           ;!                       _reflect_byte
  2492                           ;! ---------------------------------------------------------------------------------
  2493                           ;! (4) _CONVERT_Data_5Byte                                  20    19      1    3248
  2494                           ;!                                             12 COMMON     1     0      1
  2495                           ;!                                              8 BANK0     19    19      0
  2496                           ;!                              _crc16
  2497                           ;!                       _reflect_byte
  2498                           ;! ---------------------------------------------------------------------------------
  2499                           ;! (4) _CONVERT_Data_11Byte                                 34    33      1    2870
  2500                           ;!                                             12 COMMON     1     0      1
  2501                           ;!                                              8 BANK0     33    33      0
  2502                           ;!                              _crc16
  2503                           ;!                       _reflect_byte
  2504                           ;! ---------------------------------------------------------------------------------
  2505                           ;! (5) _reflect_byte                                        11     7      4    1707
  2506                           ;!                                              0 COMMON    11     7      4
  2507                           ;! ---------------------------------------------------------------------------------
  2508                           ;! (6) _crc16                                               20    18      2     555
  2509                           ;!                                              0 COMMON    12    10      2
  2510                           ;!                                              0 BANK0      8     8      0
  2511                           ;! ---------------------------------------------------------------------------------
  2512                           ;! Estimated maximum stack depth 6
  2513                           ;! ---------------------------------------------------------------------------------
  2514                           ;!
  2515                           ;! Call Graph Graphs:
  2516                           ;!
  2517                           ;! _main (ROOT)
  2518                           ;!   _EEPROM_Write
  2519                           ;!   _UART_Init
  2520                           ;!     ___aldiv
  2521                           ;!   _config_interrupt
  2522                           ;!
  2523                           ;! _ISR (ROOT)
  2524                           ;!   _CONVERT_Data_11Byte
  2525                           ;!     _crc16
  2526                           ;!     _reflect_byte
  2527                           ;!   _CONVERT_Data_5Byte
  2528                           ;!     _crc16
  2529                           ;!     _reflect_byte
  2530                           ;!   _CONVERT_Data_6Byte
  2531                           ;!     _crc16
  2532                           ;!     _reflect_byte
  2533                           ;!   _EEPROM_Read
  2534                           ;!   _UART_Read_Text
  2535                           ;!     _UART_Read
  2536                           ;!   _UART_TX_Empty
  2537                           ;!   _UART_Write_Text_Length
  2538                           ;!     _UART_Write
  2539                           ;!   i1_EEPROM_Write
  2540                           ;!
  2541                           
  2542                           ;! Address spaces:
  2543                           
  2544                           ;!Name               Size   Autos  Total    Cost      Usage
  2545                           ;!BANK3               60      0      24       9       37.5%
  2546                           ;!BITBANK3            60      0       0       8        0.0%
  2547                           ;!SFR3                 0      0       0       4        0.0%
  2548                           ;!BITSFR3              0      0       0       4        0.0%
  2549                           ;!BANK2               60      0       0      11        0.0%
  2550                           ;!BITBANK2            60      0       0      10        0.0%
  2551                           ;!SFR2                 0      0       0       5        0.0%
  2552                           ;!BITSFR2              0      0       0       5        0.0%
  2553                           ;!BANK1               50     22      4C       7       95.0%
  2554                           ;!BITBANK1            50      0       0       6        0.0%
  2555                           ;!SFR1                 0      0       0       2        0.0%
  2556                           ;!BITSFR1              0      0       0       2        0.0%
  2557                           ;!BANK0               50     40      4F       5       98.8%
  2558                           ;!BITBANK0            50      0       0       4        0.0%
  2559                           ;!SFR0                 0      0       0       1        0.0%
  2560                           ;!BITSFR0              0      0       0       1        0.0%
  2561                           ;!COMMON               E      D       D       1       92.9%
  2562                           ;!BITCOMMON            E      0       0       0        0.0%
  2563                           ;!CODE                 0      0       0       0        0.0%
  2564                           ;!DATA                 0      0      CC      12        0.0%
  2565                           ;!ABS                  0      0      CC       3        0.0%
  2566                           ;!NULL                 0      0       0       0        0.0%
  2567                           ;!STACK                0      0       0       2        0.0%
  2568                           ;!EEDATA             100      0       0       0        0.0%
  2569                           
  2570                           	global	_main
  2571                           
  2572 ;; *************** function _main *****************
  2573 ;; Defined at:
  2574 ;;		line 369 in file "main.c"
  2575 ;; Parameters:    Size  Location     Type
  2576 ;;		None
  2577 ;; Auto vars:     Size  Location     Type
  2578 ;;		None
  2579 ;; Return value:  Size  Location     Type
  2580 ;;                  1    wreg      void 
  2581 ;; Registers used:
  2582 ;;		wreg, status,2, status,0, pclath, cstack
  2583 ;; Tracked objects:
  2584 ;;		On entry : B00/0
  2585 ;;		On exit  : 0/0
  2586 ;;		Unchanged: 0/0
  2587 ;; Data sizes:     COMMON   BANK0   BANK1   BANK3   BANK2
  2588 ;;      Params:         0       0       0       0       0
  2589 ;;      Locals:         0       0       0       0       0
  2590 ;;      Temps:          0       0       1       0       0
  2591 ;;      Totals:         0       0       1       0       0
  2592 ;;Total ram usage:        1 bytes
  2593 ;; Hardware stack levels required when called:    6
  2594 ;; This function calls:
  2595 ;;		_EEPROM_Write
  2596 ;;		_UART_Init
  2597 ;;		_config_interrupt
  2598 ;; This function is called by:
  2599 ;;		Startup code after reset
  2600 ;; This function uses a non-reentrant model
  2601 ;;
  2602                           psect	maintext,global,class=CODE,delta=2,split=1,group=0
  2603                           	file	"main.c"
  2604                           	line	369
  2605                           global __pmaintext
  2606                           __pmaintext:	;psect for function _main
  2607  0EB7                     psect	maintext
  2608                           	file	"main.c"
  2609                           	line	369
  2610                           	global	__size_of_main
  2611                           	__size_of_main	equ	__end_of_main-_main
  2612  0149                     	
  2613                           _main:	
  2614  0EB7                     ;incstack = 0
  2615                           	opt	stack 2
  2616                           ; Regs used in _main: [wreg+status,2+status,0+pclath+cstack]
  2617                           	line	375
  2618                           	
  2619                           l2336:	
  2620  0EB7                     ;main.c: 375:     EEPROM_Write(0000, 0x01);
  2621                           	movlw	0
  2622  0EB7  3000               	bsf	status, 5	;RP0=1, select bank1
  2623  0EB8  1683               	bcf	status, 6	;RP1=0, select bank1
  2624  0EB9  1303               	movwf	(EEPROM_Write@address)^080h
  2625  0EBA  00C2               	movwf	(EEPROM_Write@address+1)^080h
  2626  0EBB  00C3               	clrf	(EEPROM_Write@data)^080h
  2627  0EBC  01C4               	incf	(EEPROM_Write@data)^080h,f
  2628  0EBD  0AC4               	fcall	_EEPROM_Write
  2629  0EBE  160A  118A  27BB  120A  158A  	line	376
  2630                           ;main.c: 376:     EEPROM_Write(0001, 0x02);
  2631                           	movlw	01h
  2632  0EC3  3001               	bsf	status, 5	;RP0=1, select bank1
  2633  0EC4  1683               	bcf	status, 6	;RP1=0, select bank1
  2634  0EC5  1303               	movwf	(EEPROM_Write@address)^080h
  2635  0EC6  00C2               	movlw	0
  2636  0EC7  3000               	movwf	((EEPROM_Write@address)^080h)+1
  2637  0EC8  00C3               	movlw	low(02h)
  2638  0EC9  3002               	movwf	(??_main+0)^080h+0
  2639  0ECA  00E3               	movf	(??_main+0)^080h+0,w
  2640  0ECB  0863               	movwf	(EEPROM_Write@data)^080h
  2641  0ECC  00C4               	fcall	_EEPROM_Write
  2642  0ECD  160A  118A  27BB  120A  158A  	line	377
  2643                           ;main.c: 377:     EEPROM_Write(0002, 0x00);
  2644                           	movlw	02h
  2645  0ED2  3002               	bsf	status, 5	;RP0=1, select bank1
  2646  0ED3  1683               	bcf	status, 6	;RP1=0, select bank1
  2647  0ED4  1303               	movwf	(EEPROM_Write@address)^080h
  2648  0ED5  00C2               	movlw	0
  2649  0ED6  3000               	movwf	((EEPROM_Write@address)^080h)+1
  2650  0ED7  00C3               	clrf	(EEPROM_Write@data)^080h
  2651  0ED8  01C4               	fcall	_EEPROM_Write
  2652  0ED9  160A  118A  27BB  120A  158A  	line	378
  2653                           ;main.c: 378:     EEPROM_Write(0003, 0x01);
  2654                           	movlw	03h
  2655  0EDE  3003               	bsf	status, 5	;RP0=1, select bank1
  2656  0EDF  1683               	bcf	status, 6	;RP1=0, select bank1
  2657  0EE0  1303               	movwf	(EEPROM_Write@address)^080h
  2658  0EE1  00C2               	movlw	0
  2659  0EE2  3000               	movwf	((EEPROM_Write@address)^080h)+1
  2660  0EE3  00C3               	clrf	(EEPROM_Write@data)^080h
  2661  0EE4  01C4               	incf	(EEPROM_Write@data)^080h,f
  2662  0EE5  0AC4               	fcall	_EEPROM_Write
  2663  0EE6  160A  118A  27BB  120A  158A  	line	379
  2664                           ;main.c: 379:     EEPROM_Write(0004, 0x00);
  2665                           	movlw	04h
  2666  0EEB  3004               	bsf	status, 5	;RP0=1, select bank1
  2667  0EEC  1683               	bcf	status, 6	;RP1=0, select bank1
  2668  0EED  1303               	movwf	(EEPROM_Write@address)^080h
  2669  0EEE  00C2               	movlw	0
  2670  0EEF  3000               	movwf	((EEPROM_Write@address)^080h)+1
  2671  0EF0  00C3               	clrf	(EEPROM_Write@data)^080h
  2672  0EF1  01C4               	fcall	_EEPROM_Write
  2673  0EF2  160A  118A  27BB  120A  158A  	line	380
  2674                           ;main.c: 380:     EEPROM_Write(0005, 0xB0);
  2675                           	movlw	05h
  2676  0EF7  3005               	bsf	status, 5	;RP0=1, select bank1
  2677  0EF8  1683               	bcf	status, 6	;RP1=0, select bank1
  2678  0EF9  1303               	movwf	(EEPROM_Write@address)^080h
  2679  0EFA  00C2               	movlw	0
  2680  0EFB  3000               	movwf	((EEPROM_Write@address)^080h)+1
  2681  0EFC  00C3               	movlw	low(0B0h)
  2682  0EFD  30B0               	movwf	(??_main+0)^080h+0
  2683  0EFE  00E3               	movf	(??_main+0)^080h+0,w
  2684  0EFF  0863               	movwf	(EEPROM_Write@data)^080h
  2685  0F00  00C4               	fcall	_EEPROM_Write
  2686  0F01  160A  118A  27BB  120A  158A  	line	381
  2687                           ;main.c: 381:     EEPROM_Write(0006, 0x00);
  2688                           	movlw	06h
  2689  0F06  3006               	bsf	status, 5	;RP0=1, select bank1
  2690  0F07  1683               	bcf	status, 6	;RP1=0, select bank1
  2691  0F08  1303               	movwf	(EEPROM_Write@address)^080h
  2692  0F09  00C2               	movlw	0
  2693  0F0A  3000               	movwf	((EEPROM_Write@address)^080h)+1
  2694  0F0B  00C3               	clrf	(EEPROM_Write@data)^080h
  2695  0F0C  01C4               	fcall	_EEPROM_Write
  2696  0F0D  160A  118A  27BB  120A  158A  	line	382
  2697                           ;main.c: 382:     EEPROM_Write(0007, 0x01);
  2698                           	movlw	07h
  2699  0F12  3007               	bsf	status, 5	;RP0=1, select bank1
  2700  0F13  1683               	bcf	status, 6	;RP1=0, select bank1
  2701  0F14  1303               	movwf	(EEPROM_Write@address)^080h
  2702  0F15  00C2               	movlw	0
  2703  0F16  3000               	movwf	((EEPROM_Write@address)^080h)+1
  2704  0F17  00C3               	clrf	(EEPROM_Write@data)^080h
  2705  0F18  01C4               	incf	(EEPROM_Write@data)^080h,f
  2706  0F19  0AC4               	fcall	_EEPROM_Write
  2707  0F1A  160A  118A  27BB  120A  158A  	line	384
  2708                           ;main.c: 384:     EEPROM_Write(1006, 0x00);
  2709                           	movlw	0EEh
  2710  0F1F  30EE               	bsf	status, 5	;RP0=1, select bank1
  2711  0F20  1683               	bcf	status, 6	;RP1=0, select bank1
  2712  0F21  1303               	movwf	(EEPROM_Write@address)^080h
  2713  0F22  00C2               	movlw	03h
  2714  0F23  3003               	movwf	((EEPROM_Write@address)^080h)+1
  2715  0F24  00C3               	clrf	(EEPROM_Write@data)^080h
  2716  0F25  01C4               	fcall	_EEPROM_Write
  2717  0F26  160A  118A  27BB  120A  158A  	line	385
  2718                           ;main.c: 385:     EEPROM_Write(1007, 0x05);
  2719                           	movlw	0EFh
  2720  0F2B  30EF               	bsf	status, 5	;RP0=1, select bank1
  2721  0F2C  1683               	bcf	status, 6	;RP1=0, select bank1
  2722  0F2D  1303               	movwf	(EEPROM_Write@address)^080h
  2723  0F2E  00C2               	movlw	03h
  2724  0F2F  3003               	movwf	((EEPROM_Write@address)^080h)+1
  2725  0F30  00C3               	movlw	low(05h)
  2726  0F31  3005               	movwf	(??_main+0)^080h+0
  2727  0F32  00E3               	movf	(??_main+0)^080h+0,w
  2728  0F33  0863               	movwf	(EEPROM_Write@data)^080h
  2729  0F34  00C4               	fcall	_EEPROM_Write
  2730  0F35  160A  118A  27BB  120A  158A  	line	387
  2731                           ;main.c: 387:     EEPROM_Write(1008, 0x04);
  2732                           	movlw	0F0h
  2733  0F3A  30F0               	bsf	status, 5	;RP0=1, select bank1
  2734  0F3B  1683               	bcf	status, 6	;RP1=0, select bank1
  2735  0F3C  1303               	movwf	(EEPROM_Write@address)^080h
  2736  0F3D  00C2               	movlw	03h
  2737  0F3E  3003               	movwf	((EEPROM_Write@address)^080h)+1
  2738  0F3F  00C3               	movlw	low(04h)
  2739  0F40  3004               	movwf	(??_main+0)^080h+0
  2740  0F41  00E3               	movf	(??_main+0)^080h+0,w
  2741  0F42  0863               	movwf	(EEPROM_Write@data)^080h
  2742  0F43  00C4               	fcall	_EEPROM_Write
  2743  0F44  160A  118A  27BB  120A  158A  	line	388
  2744                           ;main.c: 388:     EEPROM_Write(1009, 0x12);
  2745                           	movlw	0F1h
  2746  0F49  30F1               	bsf	status, 5	;RP0=1, select bank1
  2747  0F4A  1683               	bcf	status, 6	;RP1=0, select bank1
  2748  0F4B  1303               	movwf	(EEPROM_Write@address)^080h
  2749  0F4C  00C2               	movlw	03h
  2750  0F4D  3003               	movwf	((EEPROM_Write@address)^080h)+1
  2751  0F4E  00C3               	movlw	low(012h)
  2752  0F4F  3012               	movwf	(??_main+0)^080h+0
  2753  0F50  00E3               	movf	(??_main+0)^080h+0,w
  2754  0F51  0863               	movwf	(EEPROM_Write@data)^080h
  2755  0F52  00C4               	fcall	_EEPROM_Write
  2756  0F53  160A  118A  27BB  120A  158A  	line	390
  2757                           ;main.c: 390:     EEPROM_Write(1010, 0x06);
  2758                           	movlw	0F2h
  2759  0F58  30F2               	bsf	status, 5	;RP0=1, select bank1
  2760  0F59  1683               	bcf	status, 6	;RP1=0, select bank1
  2761  0F5A  1303               	movwf	(EEPROM_Write@address)^080h
  2762  0F5B  00C2               	movlw	03h
  2763  0F5C  3003               	movwf	((EEPROM_Write@address)^080h)+1
  2764  0F5D  00C3               	movlw	low(06h)
  2765  0F5E  3006               	movwf	(??_main+0)^080h+0
  2766  0F5F  00E3               	movf	(??_main+0)^080h+0,w
  2767  0F60  0863               	movwf	(EEPROM_Write@data)^080h
  2768  0F61  00C4               	fcall	_EEPROM_Write
  2769  0F62  160A  118A  27BB  120A  158A  	line	391
  2770                           ;main.c: 391:     EEPROM_Write(1011, 0x00);
  2771                           	movlw	0F3h
  2772  0F67  30F3               	bsf	status, 5	;RP0=1, select bank1
  2773  0F68  1683               	bcf	status, 6	;RP1=0, select bank1
  2774  0F69  1303               	movwf	(EEPROM_Write@address)^080h
  2775  0F6A  00C2               	movlw	03h
  2776  0F6B  3003               	movwf	((EEPROM_Write@address)^080h)+1
  2777  0F6C  00C3               	clrf	(EEPROM_Write@data)^080h
  2778  0F6D  01C4               	fcall	_EEPROM_Write
  2779  0F6E  160A  118A  27BB  120A  158A  	line	393
  2780                           ;main.c: 393:     EEPROM_Write(2002, 0x02);
  2781                           	movlw	0D2h
  2782  0F73  30D2               	bsf	status, 5	;RP0=1, select bank1
  2783  0F74  1683               	bcf	status, 6	;RP1=0, select bank1
  2784  0F75  1303               	movwf	(EEPROM_Write@address)^080h
  2785  0F76  00C2               	movlw	07h
  2786  0F77  3007               	movwf	((EEPROM_Write@address)^080h)+1
  2787  0F78  00C3               	movlw	low(02h)
  2788  0F79  3002               	movwf	(??_main+0)^080h+0
  2789  0F7A  00E3               	movf	(??_main+0)^080h+0,w
  2790  0F7B  0863               	movwf	(EEPROM_Write@data)^080h
  2791  0F7C  00C4               	fcall	_EEPROM_Write
  2792  0F7D  160A  118A  27BB  120A  158A  	line	394
  2793                           ;main.c: 394:     EEPROM_Write(2003, 0x40);
  2794                           	movlw	0D3h
  2795  0F82  30D3               	bsf	status, 5	;RP0=1, select bank1
  2796  0F83  1683               	bcf	status, 6	;RP1=0, select bank1
  2797  0F84  1303               	movwf	(EEPROM_Write@address)^080h
  2798  0F85  00C2               	movlw	07h
  2799  0F86  3007               	movwf	((EEPROM_Write@address)^080h)+1
  2800  0F87  00C3               	movlw	low(040h)
  2801  0F88  3040               	movwf	(??_main+0)^080h+0
  2802  0F89  00E3               	movf	(??_main+0)^080h+0,w
  2803  0F8A  0863               	movwf	(EEPROM_Write@data)^080h
  2804  0F8B  00C4               	fcall	_EEPROM_Write
  2805  0F8C  160A  118A  27BB  120A  158A  	line	397
  2806                           ;main.c: 397:     EEPROM_Write(1000, 0x40);
  2807                           	movlw	0E8h
  2808  0F91  30E8               	bsf	status, 5	;RP0=1, select bank1
  2809  0F92  1683               	bcf	status, 6	;RP1=0, select bank1
  2810  0F93  1303               	movwf	(EEPROM_Write@address)^080h
  2811  0F94  00C2               	movlw	03h
  2812  0F95  3003               	movwf	((EEPROM_Write@address)^080h)+1
  2813  0F96  00C3               	movlw	low(040h)
  2814  0F97  3040               	movwf	(??_main+0)^080h+0
  2815  0F98  00E3               	movf	(??_main+0)^080h+0,w
  2816  0F99  0863               	movwf	(EEPROM_Write@data)^080h
  2817  0F9A  00C4               	fcall	_EEPROM_Write
  2818  0F9B  160A  118A  27BB  120A  158A  	line	398
  2819                           ;main.c: 398:     EEPROM_Write(1001, 0x40);
  2820                           	movlw	0E9h
  2821  0FA0  30E9               	bsf	status, 5	;RP0=1, select bank1
  2822  0FA1  1683               	bcf	status, 6	;RP1=0, select bank1
  2823  0FA2  1303               	movwf	(EEPROM_Write@address)^080h
  2824  0FA3  00C2               	movlw	03h
  2825  0FA4  3003               	movwf	((EEPROM_Write@address)^080h)+1
  2826  0FA5  00C3               	movlw	low(040h)
  2827  0FA6  3040               	movwf	(??_main+0)^080h+0
  2828  0FA7  00E3               	movf	(??_main+0)^080h+0,w
  2829  0FA8  0863               	movwf	(EEPROM_Write@data)^080h
  2830  0FA9  00C4               	fcall	_EEPROM_Write
  2831  0FAA  160A  118A  27BB  120A  158A  	line	400
  2832                           ;main.c: 400:     EEPROM_Write(1004, 0x05);
  2833                           	movlw	0ECh
  2834  0FAF  30EC               	bsf	status, 5	;RP0=1, select bank1
  2835  0FB0  1683               	bcf	status, 6	;RP1=0, select bank1
  2836  0FB1  1303               	movwf	(EEPROM_Write@address)^080h
  2837  0FB2  00C2               	movlw	03h
  2838  0FB3  3003               	movwf	((EEPROM_Write@address)^080h)+1
  2839  0FB4  00C3               	movlw	low(05h)
  2840  0FB5  3005               	movwf	(??_main+0)^080h+0
  2841  0FB6  00E3               	movf	(??_main+0)^080h+0,w
  2842  0FB7  0863               	movwf	(EEPROM_Write@data)^080h
  2843  0FB8  00C4               	fcall	_EEPROM_Write
  2844  0FB9  160A  118A  27BB  120A  158A  	line	401
  2845                           ;main.c: 401:     EEPROM_Write(1005, 0x40);
  2846                           	movlw	0EDh
  2847  0FBE  30ED               	bsf	status, 5	;RP0=1, select bank1
  2848  0FBF  1683               	bcf	status, 6	;RP1=0, select bank1
  2849  0FC0  1303               	movwf	(EEPROM_Write@address)^080h
  2850  0FC1  00C2               	movlw	03h
  2851  0FC2  3003               	movwf	((EEPROM_Write@address)^080h)+1
  2852  0FC3  00C3               	movlw	low(040h)
  2853  0FC4  3040               	movwf	(??_main+0)^080h+0
  2854  0FC5  00E3               	movf	(??_main+0)^080h+0,w
  2855  0FC6  0863               	movwf	(EEPROM_Write@data)^080h
  2856  0FC7  00C4               	fcall	_EEPROM_Write
  2857  0FC8  160A  118A  27BB  120A  158A  	line	403
  2858                           ;main.c: 403:     EEPROM_Write(2020, 0x00);
  2859                           	movlw	0E4h
  2860  0FCD  30E4               	bsf	status, 5	;RP0=1, select bank1
  2861  0FCE  1683               	bcf	status, 6	;RP1=0, select bank1
  2862  0FCF  1303               	movwf	(EEPROM_Write@address)^080h
  2863  0FD0  00C2               	movlw	07h
  2864  0FD1  3007               	movwf	((EEPROM_Write@address)^080h)+1
  2865  0FD2  00C3               	clrf	(EEPROM_Write@data)^080h
  2866  0FD3  01C4               	fcall	_EEPROM_Write
  2867  0FD4  160A  118A  27BB  120A  158A  	line	404
  2868                           ;main.c: 404:     EEPROM_Write(2021, 0x25);
  2869                           	movlw	0E5h
  2870  0FD9  30E5               	bsf	status, 5	;RP0=1, select bank1
  2871  0FDA  1683               	bcf	status, 6	;RP1=0, select bank1
  2872  0FDB  1303               	movwf	(EEPROM_Write@address)^080h
  2873  0FDC  00C2               	movlw	07h
  2874  0FDD  3007               	movwf	((EEPROM_Write@address)^080h)+1
  2875  0FDE  00C3               	movlw	low(025h)
  2876  0FDF  3025               	movwf	(??_main+0)^080h+0
  2877  0FE0  00E3               	movf	(??_main+0)^080h+0,w
  2878  0FE1  0863               	movwf	(EEPROM_Write@data)^080h
  2879  0FE2  00C4               	fcall	_EEPROM_Write
  2880  0FE3  160A  118A  27BB  120A  158A  	line	406
  2881                           ;main.c: 406:     UART_Init(9600);
  2882                           	movlw	0
  2883  0FE8  3000               	bsf	status, 5	;RP0=1, select bank1
  2884  0FE9  1683               	bcf	status, 6	;RP1=0, select bank1
  2885  0FEA  1303               	movwf	(UART_Init@baudrate+3)^080h
  2886  0FEB  00D4               	movlw	0
  2887  0FEC  3000               	movwf	(UART_Init@baudrate+2)^080h
  2888  0FED  00D3               	movlw	025h
  2889  0FEE  3025               	movwf	(UART_Init@baudrate+1)^080h
  2890  0FEF  00D2               	movlw	080h
  2891  0FF0  3080               	movwf	(UART_Init@baudrate)^080h
  2892  0FF1  00D1               
  2893                           	fcall	_UART_Init
  2894  0FF2  120A  158A  25CA  120A  158A  	line	407
  2895                           ;main.c: 407:     config_interrupt();
  2896                           	fcall	_config_interrupt
  2897  0FF7  160A  118A  2760  120A  158A  	line	409
  2898                           ;main.c: 409:     while (1) {
  2899                           	
  2900                           l284:	
  2901  0FFC                     	line	411
  2902                           ;main.c: 411:     }
  2903                           	
  2904                           l285:	
  2905  0FFC                     	goto	l284
  2906  0FFC  2FFC               	
  2907                           l286:	
  2908  0FFD                     	line	413
  2909                           	
  2910                           l287:	
  2911  0FFD                     	global	start
  2912                           	ljmp	start
  2913  0FFD  120A  118A  2812   	opt stack 0
  2914                           GLOBAL	__end_of_main
  2915                           	__end_of_main:
  2916  1000                     	signat	_main,89
  2917                           	global	_config_interrupt
  2918                           
  2919 ;; *************** function _config_interrupt *****************
  2920 ;; Defined at:
  2921 ;;		line 363 in file "main.c"
  2922 ;; Parameters:    Size  Location     Type
  2923 ;;		None
  2924 ;; Auto vars:     Size  Location     Type
  2925 ;;		None
  2926 ;; Return value:  Size  Location     Type
  2927 ;;                  1    wreg      void 
  2928 ;; Registers used:
  2929 ;;		wreg
  2930 ;; Tracked objects:
  2931 ;;		On entry : 0/0
  2932 ;;		On exit  : 0/0
  2933 ;;		Unchanged: 0/0
  2934 ;; Data sizes:     COMMON   BANK0   BANK1   BANK3   BANK2
  2935 ;;      Params:         0       0       0       0       0
  2936 ;;      Locals:         0       0       0       0       0
  2937 ;;      Temps:          0       0       0       0       0
  2938 ;;      Totals:         0       0       0       0       0
  2939 ;;Total ram usage:        0 bytes
  2940 ;; Hardware stack levels used:    1
  2941 ;; Hardware stack levels required when called:    4
  2942 ;; This function calls:
  2943 ;;		Nothing
  2944 ;; This function is called by:
  2945 ;;		_main
  2946 ;; This function uses a non-reentrant model
  2947 ;;
  2948                           psect	text1,local,class=CODE,delta=2,merge=1,inline,group=0
  2949                           	line	363
  2950                           global __ptext1
  2951                           __ptext1:	;psect for function _config_interrupt
  2952  1760                     psect	text1
  2953                           	file	"main.c"
  2954                           	line	363
  2955                           	global	__size_of_config_interrupt
  2956                           	__size_of_config_interrupt	equ	__end_of_config_interrupt-_config_interrupt
  2957  0006                     	
  2958                           _config_interrupt:	
  2959  1760                     ;incstack = 0
  2960                           	opt	stack 3
  2961                           ; Regs used in _config_interrupt: [wreg]
  2962                           	line	365
  2963                           	
  2964                           l1950:	
  2965  1760                     ;main.c: 365:     INTCON = 0xC0;
  2966                           	movlw	low(0C0h)
  2967  1760  30C0               	movwf	(11)	;volatile
  2968  1761  008B               	line	366
  2969                           	
  2970                           l1952:	
  2971  1762                     ;main.c: 366:     PIE1bits.RCIE = 1;
  2972                           	bsf	status, 5	;RP0=1, select bank1
  2973  1762  1683               	bcf	status, 6	;RP1=0, select bank1
  2974  1763  1303               	bsf	(140)^080h,5	;volatile
  2975  1764  168C               	line	367
  2976                           	
  2977                           l279:	
  2978  1765                     	return
  2979  1765  0008               	opt stack 0
  2980                           GLOBAL	__end_of_config_interrupt
  2981                           	__end_of_config_interrupt:
  2982  1766                     	signat	_config_interrupt,89
  2983                           	global	_UART_Init
  2984                           
  2985 ;; *************** function _UART_Init *****************
  2986 ;; Defined at:
  2987 ;;		line 6 in file "./uarthex.h"
  2988 ;; Parameters:    Size  Location     Type
  2989 ;;  baudrate        4   15[BANK1 ] const long 
  2990 ;; Auto vars:     Size  Location     Type
  2991 ;;  x               2   31[BANK1 ] unsigned int 
  2992 ;; Return value:  Size  Location     Type
  2993 ;;                  1    wreg      unsigned char 
  2994 ;; Registers used:
  2995 ;;		wreg, status,2, status,0, pclath, cstack
  2996 ;; Tracked objects:
  2997 ;;		On entry : 0/0
  2998 ;;		On exit  : 0/0
  2999 ;;		Unchanged: 0/0
  3000 ;; Data sizes:     COMMON   BANK0   BANK1   BANK3   BANK2
  3001 ;;      Params:         0       0       4       0       0
  3002 ;;      Locals:         0       0       2       0       0
  3003 ;;      Temps:          0       0      12       0       0
  3004 ;;      Totals:         0       0      18       0       0
  3005 ;;Total ram usage:       18 bytes
  3006 ;; Hardware stack levels used:    1
  3007 ;; Hardware stack levels required when called:    5
  3008 ;; This function calls:
  3009 ;;		___aldiv
  3010 ;; This function is called by:
  3011 ;;		_main
  3012 ;; This function uses a non-reentrant model
  3013 ;;
  3014                           psect	text2,local,class=CODE,delta=2,merge=1,group=0
  3015                           	file	"./uarthex.h"
  3016                           	line	6
  3017                           global __ptext2
  3018                           __ptext2:	;psect for function _UART_Init
  3019  0DCA                     psect	text2
  3020                           	file	"./uarthex.h"
  3021                           	line	6
  3022                           	global	__size_of_UART_Init
  3023                           	__size_of_UART_Init	equ	__end_of_UART_Init-_UART_Init
  3024  00ED                     	
  3025                           _UART_Init:	
  3026  0DCA                     ;incstack = 0
  3027                           	opt	stack 2
  3028                           ; Regs used in _UART_Init: [wreg+status,2+status,0+pclath+cstack]
  3029                           	line	8
  3030                           	
  3031                           l1798:	
  3032  0DCA                     ;./uarthex.h: 7:     unsigned int x;;./uarthex.h: 8:     x = (4000000 - baudrate * 64) /
                                  (baudrate * 64);
  3033                           	bsf	status, 5	;RP0=1, select bank1
  3034  0DCA  1683               	bcf	status, 6	;RP1=0, select bank1
  3035  0DCB  1303               	movf	(UART_Init@baudrate)^080h,w
  3036  0DCC  0851               	movwf	(??_UART_Init+0)^080h+0
  3037  0DCD  00D5               	movf	(UART_Init@baudrate+1)^080h,w
  3038  0DCE  0852               	movwf	((??_UART_Init+0)^080h+0+1)
  3039  0DCF  00D6               	movf	(UART_Init@baudrate+2)^080h,w
  3040  0DD0  0853               	movwf	((??_UART_Init+0)^080h+0+2)
  3041  0DD1  00D7               	movf	(UART_Init@baudrate+3)^080h,w
  3042  0DD2  0854               	movwf	((??_UART_Init+0)^080h+0+3)
  3043  0DD3  00D8               	movlw	06h
  3044  0DD4  3006               u1365:
  3045  0DD5                     	clrc
  3046  0DD5  1003               	rlf	(??_UART_Init+0)^080h+0,f
  3047  0DD6  0DD5               	rlf	(??_UART_Init+0)^080h+1,f
  3048  0DD7  0DD6               	rlf	(??_UART_Init+0)^080h+2,f
  3049  0DD8  0DD7               	rlf	(??_UART_Init+0)^080h+3,f
  3050  0DD9  0DD8               u1360:
  3051  0DDA                     	addlw	-1
  3052  0DDA  3EFF               	skipz
  3053  0DDB  1D03               	goto	u1365
  3054  0DDC  2DD5               	movf	3+(??_UART_Init+0)^080h+0,w
  3055  0DDD  0858               	movwf	(___aldiv@divisor+3)^080h
  3056  0DDE  00C5               	movf	2+(??_UART_Init+0)^080h+0,w
  3057  0DDF  0857               	movwf	(___aldiv@divisor+2)^080h
  3058  0DE0  00C4               	movf	1+(??_UART_Init+0)^080h+0,w
  3059  0DE1  0856               	movwf	(___aldiv@divisor+1)^080h
  3060  0DE2  00C3               	movf	0+(??_UART_Init+0)^080h+0,w
  3061  0DE3  0855               	movwf	(___aldiv@divisor)^080h
  3062  0DE4  00C2               
  3063                           	movlw	0
  3064  0DE5  3000               	movwf	((??_UART_Init+4)^080h+0)
  3065  0DE6  00D9               	movlw	09h
  3066  0DE7  3009               	movwf	((??_UART_Init+4)^080h+0+1)
  3067  0DE8  00DA               	movlw	03Dh
  3068  0DE9  303D               	movwf	((??_UART_Init+4)^080h+0+2)
  3069  0DEA  00DB               	movlw	0
  3070  0DEB  3000               	movwf	((??_UART_Init+4)^080h+0+3)
  3071  0DEC  00DC               	movf	(UART_Init@baudrate)^080h,w
  3072  0DED  0851               	movwf	(??_UART_Init+8)^080h+0
  3073  0DEE  00DD               	movf	(UART_Init@baudrate+1)^080h,w
  3074  0DEF  0852               	movwf	((??_UART_Init+8)^080h+0+1)
  3075  0DF0  00DE               	movf	(UART_Init@baudrate+2)^080h,w
  3076  0DF1  0853               	movwf	((??_UART_Init+8)^080h+0+2)
  3077  0DF2  00DF               	movf	(UART_Init@baudrate+3)^080h,w
  3078  0DF3  0854               	movwf	((??_UART_Init+8)^080h+0+3)
  3079  0DF4  00E0               	movlw	06h
  3080  0DF5  3006               u1375:
  3081  0DF6                     	clrc
  3082  0DF6  1003               	rlf	(??_UART_Init+8)^080h+0,f
  3083  0DF7  0DDD               	rlf	(??_UART_Init+8)^080h+1,f
  3084  0DF8  0DDE               	rlf	(??_UART_Init+8)^080h+2,f
  3085  0DF9  0DDF               	rlf	(??_UART_Init+8)^080h+3,f
  3086  0DFA  0DE0               u1370:
  3087  0DFB                     	addlw	-1
  3088  0DFB  3EFF               	skipz
  3089  0DFC  1D03               	goto	u1375
  3090  0DFD  2DF6               	comf	(??_UART_Init+8)^080h+0,f
  3091  0DFE  09DD               	comf	(??_UART_Init+8)^080h+1,f
  3092  0DFF  09DE               	comf	(??_UART_Init+8)^080h+2,f
  3093  0E00  09DF               	comf	(??_UART_Init+8)^080h+3,f
  3094  0E01  09E0               	incf	(??_UART_Init+8)^080h+0,f
  3095  0E02  0ADD               	skipnz
  3096  0E03  1903               	incf	(??_UART_Init+8)^080h+1,f
  3097  0E04  0ADE               	skipnz
  3098  0E05  1903               	incf	(??_UART_Init+8)^080h+2,f
  3099  0E06  0ADF               	skipnz
  3100  0E07  1903               	incf	(??_UART_Init+8)^080h+3,f
  3101  0E08  0AE0               	movf	0+(??_UART_Init+8)^080h+0,w
  3102  0E09  085D               	addwf	(??_UART_Init+4)^080h+0,f
  3103  0E0A  07D9               	movf	1+(??_UART_Init+8)^080h+0,w
  3104  0E0B  085E               	skipnc
  3105  0E0C  1803               	incfsz	1+(??_UART_Init+8)^080h+0,w
  3106  0E0D  0F5E               	goto	u1380
  3107  0E0E  2E10               	goto	u1381
  3108  0E0F  2E11               u1380:
  3109  0E10                     	addwf	(??_UART_Init+4)^080h+1,f
  3110  0E10  07DA               u1381:
  3111  0E11                     	movf	2+(??_UART_Init+8)^080h+0,w
  3112  0E11  085F               	skipnc
  3113  0E12  1803               	incfsz	2+(??_UART_Init+8)^080h+0,w
  3114  0E13  0F5F               	goto	u1382
  3115  0E14  2E16               	goto	u1383
  3116  0E15  2E17               u1382:
  3117  0E16                     	addwf	(??_UART_Init+4)^080h+2,f
  3118  0E16  07DB               u1383:
  3119  0E17                     	movf	3+(??_UART_Init+8)^080h+0,w
  3120  0E17  0860               	skipnc
  3121  0E18  1803               	incf	3+(??_UART_Init+8)^080h+0,w
  3122  0E19  0A60               	addwf	(??_UART_Init+4)^080h+3,f
  3123  0E1A  07DC               	movf	3+(??_UART_Init+4)^080h+0,w
  3124  0E1B  085C               	movwf	(___aldiv@dividend+3)^080h
  3125  0E1C  00C9               	movf	2+(??_UART_Init+4)^080h+0,w
  3126  0E1D  085B               	movwf	(___aldiv@dividend+2)^080h
  3127  0E1E  00C8               	movf	1+(??_UART_Init+4)^080h+0,w
  3128  0E1F  085A               	movwf	(___aldiv@dividend+1)^080h
  3129  0E20  00C7               	movf	0+(??_UART_Init+4)^080h+0,w
  3130  0E21  0859               	movwf	(___aldiv@dividend)^080h
  3131  0E22  00C6               
  3132                           	fcall	___aldiv
  3133  0E23  120A  158A  2456  120A  158A  	bsf	status, 5	;RP0=1, select bank1
  3134  0E28  1683               	bcf	status, 6	;RP1=0, select bank1
  3135  0E29  1303               	movf	(1+(?___aldiv))^080h,w
  3136  0E2A  0843               	movwf	(UART_Init@x+1)^080h
  3137  0E2B  00E2               	movf	(0+(?___aldiv))^080h,w
  3138  0E2C  0842               	movwf	(UART_Init@x)^080h
  3139  0E2D  00E1               	line	9
  3140                           	
  3141                           l1800:	
  3142  0E2E                     ;./uarthex.h: 9:     if (x > 255) {
  3143                           	movlw	01h
  3144  0E2E  3001               	subwf	(UART_Init@x+1)^080h,w
  3145  0E2F  0262               	movlw	0
  3146  0E30  3000               	skipnz
  3147  0E31  1903               	subwf	(UART_Init@x)^080h,w
  3148  0E32  0261               	skipc
  3149  0E33  1C03               	goto	u1391
  3150  0E34  2E36               	goto	u1390
  3151  0E35  2E37               u1391:
  3152  0E36                     	goto	l1806
  3153  0E36  2E9B               u1390:
  3154  0E37                     	line	10
  3155                           	
  3156                           l1802:	
  3157  0E37                     ;./uarthex.h: 10:         x = (4000000 - baudrate * 16) / (baudrate * 16);
  3158                           	movf	(UART_Init@baudrate)^080h,w
  3159  0E37  0851               	movwf	(??_UART_Init+0)^080h+0
  3160  0E38  00D5               	movf	(UART_Init@baudrate+1)^080h,w
  3161  0E39  0852               	movwf	((??_UART_Init+0)^080h+0+1)
  3162  0E3A  00D6               	movf	(UART_Init@baudrate+2)^080h,w
  3163  0E3B  0853               	movwf	((??_UART_Init+0)^080h+0+2)
  3164  0E3C  00D7               	movf	(UART_Init@baudrate+3)^080h,w
  3165  0E3D  0854               	movwf	((??_UART_Init+0)^080h+0+3)
  3166  0E3E  00D8               	movlw	04h
  3167  0E3F  3004               u1405:
  3168  0E40                     	clrc
  3169  0E40  1003               	rlf	(??_UART_Init+0)^080h+0,f
  3170  0E41  0DD5               	rlf	(??_UART_Init+0)^080h+1,f
  3171  0E42  0DD6               	rlf	(??_UART_Init+0)^080h+2,f
  3172  0E43  0DD7               	rlf	(??_UART_Init+0)^080h+3,f
  3173  0E44  0DD8               u1400:
  3174  0E45                     	addlw	-1
  3175  0E45  3EFF               	skipz
  3176  0E46  1D03               	goto	u1405
  3177  0E47  2E40               	movf	3+(??_UART_Init+0)^080h+0,w
  3178  0E48  0858               	movwf	(___aldiv@divisor+3)^080h
  3179  0E49  00C5               	movf	2+(??_UART_Init+0)^080h+0,w
  3180  0E4A  0857               	movwf	(___aldiv@divisor+2)^080h
  3181  0E4B  00C4               	movf	1+(??_UART_Init+0)^080h+0,w
  3182  0E4C  0856               	movwf	(___aldiv@divisor+1)^080h
  3183  0E4D  00C3               	movf	0+(??_UART_Init+0)^080h+0,w
  3184  0E4E  0855               	movwf	(___aldiv@divisor)^080h
  3185  0E4F  00C2               
  3186                           	movlw	0
  3187  0E50  3000               	movwf	((??_UART_Init+4)^080h+0)
  3188  0E51  00D9               	movlw	09h
  3189  0E52  3009               	movwf	((??_UART_Init+4)^080h+0+1)
  3190  0E53  00DA               	movlw	03Dh
  3191  0E54  303D               	movwf	((??_UART_Init+4)^080h+0+2)
  3192  0E55  00DB               	movlw	0
  3193  0E56  3000               	movwf	((??_UART_Init+4)^080h+0+3)
  3194  0E57  00DC               	movf	(UART_Init@baudrate)^080h,w
  3195  0E58  0851               	movwf	(??_UART_Init+8)^080h+0
  3196  0E59  00DD               	movf	(UART_Init@baudrate+1)^080h,w
  3197  0E5A  0852               	movwf	((??_UART_Init+8)^080h+0+1)
  3198  0E5B  00DE               	movf	(UART_Init@baudrate+2)^080h,w
  3199  0E5C  0853               	movwf	((??_UART_Init+8)^080h+0+2)
  3200  0E5D  00DF               	movf	(UART_Init@baudrate+3)^080h,w
  3201  0E5E  0854               	movwf	((??_UART_Init+8)^080h+0+3)
  3202  0E5F  00E0               	movlw	04h
  3203  0E60  3004               u1415:
  3204  0E61                     	clrc
  3205  0E61  1003               	rlf	(??_UART_Init+8)^080h+0,f
  3206  0E62  0DDD               	rlf	(??_UART_Init+8)^080h+1,f
  3207  0E63  0DDE               	rlf	(??_UART_Init+8)^080h+2,f
  3208  0E64  0DDF               	rlf	(??_UART_Init+8)^080h+3,f
  3209  0E65  0DE0               u1410:
  3210  0E66                     	addlw	-1
  3211  0E66  3EFF               	skipz
  3212  0E67  1D03               	goto	u1415
  3213  0E68  2E61               	comf	(??_UART_Init+8)^080h+0,f
  3214  0E69  09DD               	comf	(??_UART_Init+8)^080h+1,f
  3215  0E6A  09DE               	comf	(??_UART_Init+8)^080h+2,f
  3216  0E6B  09DF               	comf	(??_UART_Init+8)^080h+3,f
  3217  0E6C  09E0               	incf	(??_UART_Init+8)^080h+0,f
  3218  0E6D  0ADD               	skipnz
  3219  0E6E  1903               	incf	(??_UART_Init+8)^080h+1,f
  3220  0E6F  0ADE               	skipnz
  3221  0E70  1903               	incf	(??_UART_Init+8)^080h+2,f
  3222  0E71  0ADF               	skipnz
  3223  0E72  1903               	incf	(??_UART_Init+8)^080h+3,f
  3224  0E73  0AE0               	movf	0+(??_UART_Init+8)^080h+0,w
  3225  0E74  085D               	addwf	(??_UART_Init+4)^080h+0,f
  3226  0E75  07D9               	movf	1+(??_UART_Init+8)^080h+0,w
  3227  0E76  085E               	skipnc
  3228  0E77  1803               	incfsz	1+(??_UART_Init+8)^080h+0,w
  3229  0E78  0F5E               	goto	u1420
  3230  0E79  2E7B               	goto	u1421
  3231  0E7A  2E7C               u1420:
  3232  0E7B                     	addwf	(??_UART_Init+4)^080h+1,f
  3233  0E7B  07DA               u1421:
  3234  0E7C                     	movf	2+(??_UART_Init+8)^080h+0,w
  3235  0E7C  085F               	skipnc
  3236  0E7D  1803               	incfsz	2+(??_UART_Init+8)^080h+0,w
  3237  0E7E  0F5F               	goto	u1422
  3238  0E7F  2E81               	goto	u1423
  3239  0E80  2E82               u1422:
  3240  0E81                     	addwf	(??_UART_Init+4)^080h+2,f
  3241  0E81  07DB               u1423:
  3242  0E82                     	movf	3+(??_UART_Init+8)^080h+0,w
  3243  0E82  0860               	skipnc
  3244  0E83  1803               	incf	3+(??_UART_Init+8)^080h+0,w
  3245  0E84  0A60               	addwf	(??_UART_Init+4)^080h+3,f
  3246  0E85  07DC               	movf	3+(??_UART_Init+4)^080h+0,w
  3247  0E86  085C               	movwf	(___aldiv@dividend+3)^080h
  3248  0E87  00C9               	movf	2+(??_UART_Init+4)^080h+0,w
  3249  0E88  085B               	movwf	(___aldiv@dividend+2)^080h
  3250  0E89  00C8               	movf	1+(??_UART_Init+4)^080h+0,w
  3251  0E8A  085A               	movwf	(___aldiv@dividend+1)^080h
  3252  0E8B  00C7               	movf	0+(??_UART_Init+4)^080h+0,w
  3253  0E8C  0859               	movwf	(___aldiv@dividend)^080h
  3254  0E8D  00C6               
  3255                           	fcall	___aldiv
  3256  0E8E  120A  158A  2456  120A  158A  	bsf	status, 5	;RP0=1, select bank1
  3257  0E93  1683               	bcf	status, 6	;RP1=0, select bank1
  3258  0E94  1303               	movf	(1+(?___aldiv))^080h,w
  3259  0E95  0843               	movwf	(UART_Init@x+1)^080h
  3260  0E96  00E2               	movf	(0+(?___aldiv))^080h,w
  3261  0E97  0842               	movwf	(UART_Init@x)^080h
  3262  0E98  00E1               	line	11
  3263                           	
  3264                           l1804:	
  3265  0E99                     ;./uarthex.h: 11:         TXSTAbits.BRGH = 1;
  3266                           	bsf	(152)^080h,2	;volatile
  3267  0E99  1518               	goto	l1806
  3268  0E9A  2E9B               	line	12
  3269                           ;./uarthex.h: 12:     }
  3270                           	
  3271                           l35:	
  3272  0E9B                     	line	13
  3273                           	
  3274                           l1806:	
  3275  0E9B                     ;./uarthex.h: 13:     if (x < 256) {
  3276                           	movlw	01h
  3277  0E9B  3001               	subwf	(UART_Init@x+1)^080h,w
  3278  0E9C  0262               	movlw	0
  3279  0E9D  3000               	skipnz
  3280  0E9E  1903               	subwf	(UART_Init@x)^080h,w
  3281  0E9F  0261               	skipnc
  3282  0EA0  1803               	goto	u1431
  3283  0EA1  2EA3               	goto	u1430
  3284  0EA2  2EA4               u1431:
  3285  0EA3                     	goto	l37
  3286  0EA3  2EB6               u1430:
  3287  0EA4                     	line	14
  3288                           	
  3289                           l1808:	
  3290  0EA4                     ;./uarthex.h: 14:         SPBRG = x;
  3291                           	movf	(UART_Init@x)^080h,w
  3292  0EA4  0861               	movwf	(153)^080h	;volatile
  3293  0EA5  0099               	line	15
  3294                           	
  3295                           l1810:	
  3296  0EA6                     ;./uarthex.h: 15:         TXSTAbits.SYNC = 0;
  3297                           	bcf	(152)^080h,4	;volatile
  3298  0EA6  1218               	line	16
  3299                           	
  3300                           l1812:	
  3301  0EA7                     ;./uarthex.h: 16:         RCSTAbits.SPEN = 1;
  3302                           	bcf	status, 5	;RP0=0, select bank0
  3303  0EA7  1283               	bcf	status, 6	;RP1=0, select bank0
  3304  0EA8  1303               	bsf	(24),7	;volatile
  3305  0EA9  1798               	line	17
  3306                           	
  3307                           l1814:	
  3308  0EAA                     ;./uarthex.h: 17:         TRISC7 = 1;
  3309                           	bsf	status, 5	;RP0=1, select bank1
  3310  0EAA  1683               	bcf	status, 6	;RP1=0, select bank1
  3311  0EAB  1303               	bsf	(1087/8)^080h,(1087)&7	;volatile
  3312  0EAC  1787               	line	18
  3313                           	
  3314                           l1816:	
  3315  0EAD                     ;./uarthex.h: 18:         TRISC6 = 0;
  3316                           	bcf	(1086/8)^080h,(1086)&7	;volatile
  3317  0EAD  1307               	line	19
  3318                           	
  3319                           l1818:	
  3320  0EAE                     ;./uarthex.h: 19:         RCSTAbits.CREN = 1;
  3321                           	bcf	status, 5	;RP0=0, select bank0
  3322  0EAE  1283               	bcf	status, 6	;RP1=0, select bank0
  3323  0EAF  1303               	bsf	(24),4	;volatile
  3324  0EB0  1618               	line	20
  3325                           	
  3326                           l1820:	
  3327  0EB1                     ;./uarthex.h: 20:         TXSTAbits.TXEN = 1;
  3328                           	bsf	status, 5	;RP0=1, select bank1
  3329  0EB1  1683               	bcf	status, 6	;RP1=0, select bank1
  3330  0EB2  1303               	bsf	(152)^080h,5	;volatile
  3331  0EB3  1698               	goto	l37
  3332  0EB4  2EB6               	line	21
  3333                           	
  3334                           l1822:	
  3335  0EB5                     ;./uarthex.h: 21:         return 1;;	Return value of _UART_Init is never used
  3336                           	goto	l37
  3337  0EB5  2EB6               	line	22
  3338                           ;./uarthex.h: 22:     }
  3339                           	
  3340                           l36:	
  3341  0EB6                     	line	24
  3342                           ;./uarthex.h: 23:     return 0;;	Return value of _UART_Init is never used
  3343                           	
  3344                           l37:	
  3345  0EB6                     	return
  3346  0EB6  0008               	opt stack 0
  3347                           GLOBAL	__end_of_UART_Init
  3348                           	__end_of_UART_Init:
  3349  0EB7                     	signat	_UART_Init,4217
  3350                           	global	___aldiv
  3351                           
  3352 ;; *************** function ___aldiv *****************
  3353 ;; Defined at:
  3354 ;;		line 5 in file "C:\Program Files (x86)\Microchip\xc8\v2.00\pic\sources\c90\common\aldiv.c"
  3355 ;; Parameters:    Size  Location     Type
  3356 ;;  divisor         4    0[BANK1 ] long 
  3357 ;;  dividend        4    4[BANK1 ] long 
  3358 ;; Auto vars:     Size  Location     Type
  3359 ;;  quotient        4   11[BANK1 ] long 
  3360 ;;  sign            1   10[BANK1 ] unsigned char 
  3361 ;;  counter         1    9[BANK1 ] unsigned char 
  3362 ;; Return value:  Size  Location     Type
  3363 ;;                  4    0[BANK1 ] long 
  3364 ;; Registers used:
  3365 ;;		wreg, status,2, status,0
  3366 ;; Tracked objects:
  3367 ;;		On entry : 0/0
  3368 ;;		On exit  : 0/0
  3369 ;;		Unchanged: 0/0
  3370 ;; Data sizes:     COMMON   BANK0   BANK1   BANK3   BANK2
  3371 ;;      Params:         0       0       8       0       0
  3372 ;;      Locals:         0       0       6       0       0
  3373 ;;      Temps:          0       0       1       0       0
  3374 ;;      Totals:         0       0      15       0       0
  3375 ;;Total ram usage:       15 bytes
  3376 ;; Hardware stack levels used:    1
  3377 ;; Hardware stack levels required when called:    4
  3378 ;; This function calls:
  3379 ;;		Nothing
  3380 ;; This function is called by:
  3381 ;;		_UART_Init
  3382 ;; This function uses a non-reentrant model
  3383 ;;
  3384                           psect	text3,local,class=CODE,delta=2,merge=1,group=1
  3385                           	file	"C:\Program Files (x86)\Microchip\xc8\v2.00\pic\sources\c90\common\aldiv.c"
  3386                           	line	5
  3387                           global __ptext3
  3388                           __ptext3:	;psect for function ___aldiv
  3389  0C56                     psect	text3
  3390                           	file	"C:\Program Files (x86)\Microchip\xc8\v2.00\pic\sources\c90\common\aldiv.c"
  3391                           	line	5
  3392                           	global	__size_of___aldiv
  3393                           	__size_of___aldiv	equ	__end_of___aldiv-___aldiv
  3394  00A6                     	
  3395                           ___aldiv:	
  3396  0C56                     ;incstack = 0
  3397                           	opt	stack 2
  3398                           ; Regs used in ___aldiv: [wreg+status,2+status,0]
  3399                           	line	13
  3400                           	
  3401                           l1758:	
  3402  0C56                     	bsf	status, 5	;RP0=1, select bank1
  3403  0C56  1683               	bcf	status, 6	;RP1=0, select bank1
  3404  0C57  1303               	clrf	(___aldiv@sign)^080h
  3405  0C58  01CC               	line	14
  3406                           	
  3407                           l1760:	
  3408  0C59                     	btfss	(___aldiv@divisor+3)^080h,7
  3409  0C59  1FC5               	goto	u1261
  3410  0C5A  2C5C               	goto	u1260
  3411  0C5B  2C5D               u1261:
  3412  0C5C                     	goto	l438
  3413  0C5C  2C6A               u1260:
  3414  0C5D                     	line	15
  3415                           	
  3416                           l1762:	
  3417  0C5D                     	comf	(___aldiv@divisor)^080h,f
  3418  0C5D  09C2               	comf	(___aldiv@divisor+1)^080h,f
  3419  0C5E  09C3               	comf	(___aldiv@divisor+2)^080h,f
  3420  0C5F  09C4               	comf	(___aldiv@divisor+3)^080h,f
  3421  0C60  09C5               	incf	(___aldiv@divisor)^080h,f
  3422  0C61  0AC2               	skipnz
  3423  0C62  1903               	incf	(___aldiv@divisor+1)^080h,f
  3424  0C63  0AC3               	skipnz
  3425  0C64  1903               	incf	(___aldiv@divisor+2)^080h,f
  3426  0C65  0AC4               	skipnz
  3427  0C66  1903               	incf	(___aldiv@divisor+3)^080h,f
  3428  0C67  0AC5               	line	16
  3429                           	clrf	(___aldiv@sign)^080h
  3430  0C68  01CC               	incf	(___aldiv@sign)^080h,f
  3431  0C69  0ACC               	line	17
  3432                           	
  3433                           l438:	
  3434  0C6A                     	line	18
  3435                           	btfss	(___aldiv@dividend+3)^080h,7
  3436  0C6A  1FC9               	goto	u1271
  3437  0C6B  2C6D               	goto	u1270
  3438  0C6C  2C6E               u1271:
  3439  0C6D                     	goto	l1768
  3440  0C6D  2C7E               u1270:
  3441  0C6E                     	line	19
  3442                           	
  3443                           l1764:	
  3444  0C6E                     	comf	(___aldiv@dividend)^080h,f
  3445  0C6E  09C6               	comf	(___aldiv@dividend+1)^080h,f
  3446  0C6F  09C7               	comf	(___aldiv@dividend+2)^080h,f
  3447  0C70  09C8               	comf	(___aldiv@dividend+3)^080h,f
  3448  0C71  09C9               	incf	(___aldiv@dividend)^080h,f
  3449  0C72  0AC6               	skipnz
  3450  0C73  1903               	incf	(___aldiv@dividend+1)^080h,f
  3451  0C74  0AC7               	skipnz
  3452  0C75  1903               	incf	(___aldiv@dividend+2)^080h,f
  3453  0C76  0AC8               	skipnz
  3454  0C77  1903               	incf	(___aldiv@dividend+3)^080h,f
  3455  0C78  0AC9               	line	20
  3456                           	
  3457                           l1766:	
  3458  0C79                     	movlw	low(01h)
  3459  0C79  3001               	movwf	(??___aldiv+0)^080h+0
  3460  0C7A  00CA               	movf	(??___aldiv+0)^080h+0,w
  3461  0C7B  084A               	xorwf	(___aldiv@sign)^080h,f
  3462  0C7C  06CC               	goto	l1768
  3463  0C7D  2C7E               	line	21
  3464                           	
  3465                           l439:	
  3466  0C7E                     	line	22
  3467                           	
  3468                           l1768:	
  3469  0C7E                     	movlw	high highword(0)
  3470  0C7E  3000               	movwf	(___aldiv@quotient+3)^080h
  3471  0C7F  00D0               	movlw	low highword(0)
  3472  0C80  3000               	movwf	(___aldiv@quotient+2)^080h
  3473  0C81  00CF               	movlw	high(0)
  3474  0C82  3000               	movwf	(___aldiv@quotient+1)^080h
  3475  0C83  00CE               	movlw	low(0)
  3476  0C84  3000               	movwf	(___aldiv@quotient)^080h
  3477  0C85  00CD               
  3478                           	line	23
  3479                           	
  3480                           l1770:	
  3481  0C86                     	movf	(___aldiv@divisor+3)^080h,w
  3482  0C86  0845               	iorwf	(___aldiv@divisor+2)^080h,w
  3483  0C87  0444               	iorwf	(___aldiv@divisor+1)^080h,w
  3484  0C88  0443               	iorwf	(___aldiv@divisor)^080h,w
  3485  0C89  0442               	skipnz
  3486  0C8A  1903               	goto	u1281
  3487  0C8B  2C8D               	goto	u1280
  3488  0C8C  2C8E               u1281:
  3489  0C8D                     	goto	l1790
  3490  0C8D  2CE1               u1280:
  3491  0C8E                     	line	24
  3492                           	
  3493                           l1772:	
  3494  0C8E                     	clrf	(___aldiv@counter)^080h
  3495  0C8E  01CB               	incf	(___aldiv@counter)^080h,f
  3496  0C8F  0ACB               	line	25
  3497                           	goto	l1776
  3498  0C90  2C9F               	
  3499                           l442:	
  3500  0C91                     	line	26
  3501                           	
  3502                           l1774:	
  3503  0C91                     	movlw	01h
  3504  0C91  3001               	movwf	(??___aldiv+0)^080h+0
  3505  0C92  00CA               u1295:
  3506  0C93                     	clrc
  3507  0C93  1003               	rlf	(___aldiv@divisor)^080h,f
  3508  0C94  0DC2               	rlf	(___aldiv@divisor+1)^080h,f
  3509  0C95  0DC3               	rlf	(___aldiv@divisor+2)^080h,f
  3510  0C96  0DC4               	rlf	(___aldiv@divisor+3)^080h,f
  3511  0C97  0DC5               	decfsz	(??___aldiv+0)^080h+0
  3512  0C98  0BCA               	goto	u1295
  3513  0C99  2C93               	line	27
  3514                           	movlw	low(01h)
  3515  0C9A  3001               	movwf	(??___aldiv+0)^080h+0
  3516  0C9B  00CA               	movf	(??___aldiv+0)^080h+0,w
  3517  0C9C  084A               	addwf	(___aldiv@counter)^080h,f
  3518  0C9D  07CB               	goto	l1776
  3519  0C9E  2C9F               	line	28
  3520                           	
  3521                           l441:	
  3522  0C9F                     	line	25
  3523                           	
  3524                           l1776:	
  3525  0C9F                     	btfss	(___aldiv@divisor+3)^080h,(31)&7
  3526  0C9F  1FC5               	goto	u1301
  3527  0CA0  2CA2               	goto	u1300
  3528  0CA1  2CA3               u1301:
  3529  0CA2                     	goto	l1774
  3530  0CA2  2C91               u1300:
  3531  0CA3                     	goto	l1778
  3532  0CA3  2CA5               	
  3533                           l443:	
  3534  0CA4                     	goto	l1778
  3535  0CA4  2CA5               	line	29
  3536                           	
  3537                           l444:	
  3538  0CA5                     	line	30
  3539                           	
  3540                           l1778:	
  3541  0CA5                     	movlw	01h
  3542  0CA5  3001               	movwf	(??___aldiv+0)^080h+0
  3543  0CA6  00CA               u1315:
  3544  0CA7                     	clrc
  3545  0CA7  1003               	rlf	(___aldiv@quotient)^080h,f
  3546  0CA8  0DCD               	rlf	(___aldiv@quotient+1)^080h,f
  3547  0CA9  0DCE               	rlf	(___aldiv@quotient+2)^080h,f
  3548  0CAA  0DCF               	rlf	(___aldiv@quotient+3)^080h,f
  3549  0CAB  0DD0               	decfsz	(??___aldiv+0)^080h+0
  3550  0CAC  0BCA               	goto	u1315
  3551  0CAD  2CA7               	line	31
  3552                           	
  3553                           l1780:	
  3554  0CAE                     	movf	(___aldiv@divisor+3)^080h,w
  3555  0CAE  0845               	subwf	(___aldiv@dividend+3)^080h,w
  3556  0CAF  0249               	skipz
  3557  0CB0  1D03               	goto	u1325
  3558  0CB1  2CBC               	movf	(___aldiv@divisor+2)^080h,w
  3559  0CB2  0844               	subwf	(___aldiv@dividend+2)^080h,w
  3560  0CB3  0248               	skipz
  3561  0CB4  1D03               	goto	u1325
  3562  0CB5  2CBC               	movf	(___aldiv@divisor+1)^080h,w
  3563  0CB6  0843               	subwf	(___aldiv@dividend+1)^080h,w
  3564  0CB7  0247               	skipz
  3565  0CB8  1D03               	goto	u1325
  3566  0CB9  2CBC               	movf	(___aldiv@divisor)^080h,w
  3567  0CBA  0842               	subwf	(___aldiv@dividend)^080h,w
  3568  0CBB  0246               u1325:
  3569  0CBC                     	skipc
  3570  0CBC  1C03               	goto	u1321
  3571  0CBD  2CBF               	goto	u1320
  3572  0CBE  2CC0               u1321:
  3573  0CBF                     	goto	l1786
  3574  0CBF  2CD0               u1320:
  3575  0CC0                     	line	32
  3576                           	
  3577                           l1782:	
  3578  0CC0                     	movf	(___aldiv@divisor)^080h,w
  3579  0CC0  0842               	subwf	(___aldiv@dividend)^080h,f
  3580  0CC1  02C6               	movf	(___aldiv@divisor+1)^080h,w
  3581  0CC2  0843               	skipc
  3582  0CC3  1C03               	incfsz	(___aldiv@divisor+1)^080h,w
  3583  0CC4  0F43               	subwf	(___aldiv@dividend+1)^080h,f
  3584  0CC5  02C7               	movf	(___aldiv@divisor+2)^080h,w
  3585  0CC6  0844               	skipc
  3586  0CC7  1C03               	incfsz	(___aldiv@divisor+2)^080h,w
  3587  0CC8  0F44               	subwf	(___aldiv@dividend+2)^080h,f
  3588  0CC9  02C8               	movf	(___aldiv@divisor+3)^080h,w
  3589  0CCA  0845               	skipc
  3590  0CCB  1C03               	incfsz	(___aldiv@divisor+3)^080h,w
  3591  0CCC  0F45               	subwf	(___aldiv@dividend+3)^080h,f
  3592  0CCD  02C9               	line	33
  3593                           	
  3594                           l1784:	
  3595  0CCE                     	bsf	(___aldiv@quotient)^080h+(0/8),(0)&7
  3596  0CCE  144D               	goto	l1786
  3597  0CCF  2CD0               	line	34
  3598                           	
  3599                           l445:	
  3600  0CD0                     	line	35
  3601                           	
  3602                           l1786:	
  3603  0CD0                     	movlw	01h
  3604  0CD0  3001               u1335:
  3605  0CD1                     	clrc
  3606  0CD1  1003               	rrf	(___aldiv@divisor+3)^080h,f
  3607  0CD2  0CC5               	rrf	(___aldiv@divisor+2)^080h,f
  3608  0CD3  0CC4               	rrf	(___aldiv@divisor+1)^080h,f
  3609  0CD4  0CC3               	rrf	(___aldiv@divisor)^080h,f
  3610  0CD5  0CC2               	addlw	-1
  3611  0CD6  3EFF               	skipz
  3612  0CD7  1D03               	goto	u1335
  3613  0CD8  2CD1               
  3614                           	line	36
  3615                           	
  3616                           l1788:	
  3617  0CD9                     	movlw	01h
  3618  0CD9  3001               	subwf	(___aldiv@counter)^080h,f
  3619  0CDA  02CB               	btfss	status,2
  3620  0CDB  1D03               	goto	u1341
  3621  0CDC  2CDE               	goto	u1340
  3622  0CDD  2CDF               u1341:
  3623  0CDE                     	goto	l1778
  3624  0CDE  2CA5               u1340:
  3625  0CDF                     	goto	l1790
  3626  0CDF  2CE1               	
  3627                           l446:	
  3628  0CE0                     	goto	l1790
  3629  0CE0  2CE1               	line	37
  3630                           	
  3631                           l440:	
  3632  0CE1                     	line	38
  3633                           	
  3634                           l1790:	
  3635  0CE1                     	movf	((___aldiv@sign)^080h),w
  3636  0CE1  084C               	btfsc	status,2
  3637  0CE2  1903               	goto	u1351
  3638  0CE3  2CE5               	goto	u1350
  3639  0CE4  2CE6               u1351:
  3640  0CE5                     	goto	l1794
  3641  0CE5  2CF2               u1350:
  3642  0CE6                     	line	39
  3643                           	
  3644                           l1792:	
  3645  0CE6                     	comf	(___aldiv@quotient)^080h,f
  3646  0CE6  09CD               	comf	(___aldiv@quotient+1)^080h,f
  3647  0CE7  09CE               	comf	(___aldiv@quotient+2)^080h,f
  3648  0CE8  09CF               	comf	(___aldiv@quotient+3)^080h,f
  3649  0CE9  09D0               	incf	(___aldiv@quotient)^080h,f
  3650  0CEA  0ACD               	skipnz
  3651  0CEB  1903               	incf	(___aldiv@quotient+1)^080h,f
  3652  0CEC  0ACE               	skipnz
  3653  0CED  1903               	incf	(___aldiv@quotient+2)^080h,f
  3654  0CEE  0ACF               	skipnz
  3655  0CEF  1903               	incf	(___aldiv@quotient+3)^080h,f
  3656  0CF0  0AD0               	goto	l1794
  3657  0CF1  2CF2               	
  3658                           l447:	
  3659  0CF2                     	line	40
  3660                           	
  3661                           l1794:	
  3662  0CF2                     	movf	(___aldiv@quotient+3)^080h,w
  3663  0CF2  0850               	movwf	(?___aldiv+3)^080h
  3664  0CF3  00C5               	movf	(___aldiv@quotient+2)^080h,w
  3665  0CF4  084F               	movwf	(?___aldiv+2)^080h
  3666  0CF5  00C4               	movf	(___aldiv@quotient+1)^080h,w
  3667  0CF6  084E               	movwf	(?___aldiv+1)^080h
  3668  0CF7  00C3               	movf	(___aldiv@quotient)^080h,w
  3669  0CF8  084D               	movwf	(?___aldiv)^080h
  3670  0CF9  00C2               
  3671                           	goto	l448
  3672  0CFA  2CFB               	
  3673                           l1796:	
  3674  0CFB                     	line	41
  3675                           	
  3676                           l448:	
  3677  0CFB                     	return
  3678  0CFB  0008               	opt stack 0
  3679                           GLOBAL	__end_of___aldiv
  3680                           	__end_of___aldiv:
  3681  0CFC                     	signat	___aldiv,8316
  3682                           	global	_EEPROM_Write
  3683                           
  3684 ;; *************** function _EEPROM_Write *****************
  3685 ;; Defined at:
  3686 ;;		line 66 in file "main.c"
  3687 ;; Parameters:    Size  Location     Type
  3688 ;;  address         2    0[BANK1 ] int 
  3689 ;;  data            1    2[BANK1 ] unsigned char 
  3690 ;; Auto vars:     Size  Location     Type
  3691 ;;		None
  3692 ;; Return value:  Size  Location     Type
  3693 ;;                  1    wreg      void 
  3694 ;; Registers used:
  3695 ;;		wreg
  3696 ;; Tracked objects:
  3697 ;;		On entry : 0/0
  3698 ;;		On exit  : 0/0
  3699 ;;		Unchanged: 0/0
  3700 ;; Data sizes:     COMMON   BANK0   BANK1   BANK3   BANK2
  3701 ;;      Params:         0       0       3       0       0
  3702 ;;      Locals:         0       0       0       0       0
  3703 ;;      Temps:          0       0       0       0       0
  3704 ;;      Totals:         0       0       3       0       0
  3705 ;;Total ram usage:        3 bytes
  3706 ;; Hardware stack levels used:    1
  3707 ;; Hardware stack levels required when called:    4
  3708 ;; This function calls:
  3709 ;;		Nothing
  3710 ;; This function is called by:
  3711 ;;		_main
  3712 ;;		_EEPROM_WriteString
  3713 ;; This function uses a non-reentrant model
  3714 ;;
  3715                           psect	text4,local,class=CODE,delta=2,merge=1,group=0
  3716                           	file	"main.c"
  3717                           	line	66
  3718                           global __ptext4
  3719                           __ptext4:	;psect for function _EEPROM_Write
  3720  17BB                     psect	text4
  3721                           	file	"main.c"
  3722                           	line	66
  3723                           	global	__size_of_EEPROM_Write
  3724                           	__size_of_EEPROM_Write	equ	__end_of_EEPROM_Write-_EEPROM_Write
  3725  0020                     	
  3726                           _EEPROM_Write:	
  3727  17BB                     ;incstack = 0
  3728                           	opt	stack 3
  3729                           ; Regs used in _EEPROM_Write: [wreg]
  3730                           	line	68
  3731                           	
  3732                           l1850:	
  3733  17BB                     ;main.c: 68:     EEADR = address;
  3734                           	bsf	status, 5	;RP0=1, select bank1
  3735  17BB  1683               	bcf	status, 6	;RP1=0, select bank1
  3736  17BC  1303               	movf	(EEPROM_Write@address)^080h,w
  3737  17BD  0842               	bcf	status, 5	;RP0=0, select bank2
  3738  17BE  1283               	bsf	status, 6	;RP1=1, select bank2
  3739  17BF  1703               	movwf	(269)^0100h	;volatile
  3740  17C0  008D               	line	69
  3741                           ;main.c: 69:     EEDATA = data;
  3742                           	bsf	status, 5	;RP0=1, select bank1
  3743  17C1  1683               	bcf	status, 6	;RP1=0, select bank1
  3744  17C2  1303               	movf	(EEPROM_Write@data)^080h,w
  3745  17C3  0844               	bcf	status, 5	;RP0=0, select bank2
  3746  17C4  1283               	bsf	status, 6	;RP1=1, select bank2
  3747  17C5  1703               	movwf	(268)^0100h	;volatile
  3748  17C6  008C               	line	70
  3749                           	
  3750                           l1852:	
  3751  17C7                     ;main.c: 70:     EECON1bits.EEPGD = 0;
  3752                           	bsf	status, 5	;RP0=1, select bank3
  3753  17C7  1683               	bsf	status, 6	;RP1=1, select bank3
  3754  17C8  1703               	bcf	(396)^0180h,7	;volsfr
  3755  17C9  138C               	line	71
  3756                           	
  3757                           l1854:	
  3758  17CA                     ;main.c: 71:     EECON1bits.WREN = 1;
  3759                           	bsf	(396)^0180h,2	;volsfr
  3760  17CA  150C               	line	72
  3761                           	
  3762                           l1856:	
  3763  17CB                     ;main.c: 72:     INTCONbits.GIE = 0;
  3764                           	bcf	(11),7	;volatile
  3765  17CB  138B               	line	76
  3766                           ;main.c: 76:     EECON2 = 0x55;
  3767                           	movlw	low(055h)
  3768  17CC  3055               	movwf	(397)^0180h	;volsfr
  3769  17CD  008D               	line	77
  3770                           ;main.c: 77:     EECON2 = 0xaa;
  3771                           	movlw	low(0AAh)
  3772  17CE  30AA               	movwf	(397)^0180h	;volsfr
  3773  17CF  008D               	line	79
  3774                           	
  3775                           l1858:	
  3776  17D0                     ;main.c: 79:     EECON1bits.WR = 1;
  3777                           	bsf	(396)^0180h,1	;volsfr
  3778  17D0  148C               	line	80
  3779                           	
  3780                           l1860:	
  3781  17D1                     ;main.c: 80:     INTCONbits.GIE = 1;
  3782                           	bsf	(11),7	;volatile
  3783  17D1  178B               	line	82
  3784                           ;main.c: 82:     while (PIR2bits.EEIF == 0);
  3785                           	goto	l159
  3786  17D2  2FD3               	
  3787                           l160:	
  3788  17D3                     	
  3789                           l159:	
  3790  17D3                     	bcf	status, 5	;RP0=0, select bank0
  3791  17D3  1283               	bcf	status, 6	;RP1=0, select bank0
  3792  17D4  1303               	btfss	(13),4	;volatile
  3793  17D5  1E0D               	goto	u1471
  3794  17D6  2FD8               	goto	u1470
  3795  17D7  2FD9               u1471:
  3796  17D8                     	goto	l159
  3797  17D8  2FD3               u1470:
  3798  17D9                     	
  3799                           l161:	
  3800  17D9                     	line	83
  3801                           ;main.c: 83:     PIR2bits.EEIF = 0;
  3802                           	bcf	(13),4	;volatile
  3803  17D9  120D               	line	85
  3804                           	
  3805                           l162:	
  3806  17DA                     	return
  3807  17DA  0008               	opt stack 0
  3808                           GLOBAL	__end_of_EEPROM_Write
  3809                           	__end_of_EEPROM_Write:
  3810  17DB                     	signat	_EEPROM_Write,8313
  3811                           	global	_ISR
  3812                           
  3813 ;; *************** function _ISR *****************
  3814 ;; Defined at:
  3815 ;;		line 188 in file "main.c"
  3816 ;; Parameters:    Size  Location     Type
  3817 ;;		None
  3818 ;; Auto vars:     Size  Location     Type
  3819 ;;  data            8   49[BANK0 ] unsigned char [8]
  3820 ;;  crc_code_res    2   61[BANK0 ] unsigned char [2]
  3821 ;;  address         2   59[BANK0 ] unsigned int 
  3822 ;;  crc_code_rea    2   57[BANK0 ] unsigned char [2]
  3823 ;;  i               1   63[BANK0 ] unsigned char 
  3824 ;; Return value:  Size  Location     Type
  3825 ;;                  1    wreg      void 
  3826 ;; Registers used:
  3827 ;;		wreg, fsr0l, fsr0h, status,2, status,0, btemp+1, pclath, cstack
  3828 ;; Tracked objects:
  3829 ;;		On entry : 0/0
  3830 ;;		On exit  : 0/0
  3831 ;;		Unchanged: 0/0
  3832 ;; Data sizes:     COMMON   BANK0   BANK1   BANK3   BANK2
  3833 ;;      Params:         0       0       0       0       0
  3834 ;;      Locals:         0      15       0       0       0
  3835 ;;      Temps:          0       8       0       0       0
  3836 ;;      Totals:         0      23       0       0       0
  3837 ;;Total ram usage:       23 bytes
  3838 ;; Hardware stack levels used:    1
  3839 ;; Hardware stack levels required when called:    3
  3840 ;; This function calls:
  3841 ;;		_CONVERT_Data_11Byte
  3842 ;;		_CONVERT_Data_5Byte
  3843 ;;		_CONVERT_Data_6Byte
  3844 ;;		_EEPROM_Read
  3845 ;;		_UART_Read_Text
  3846 ;;		_UART_TX_Empty
  3847 ;;		_UART_Write_Text_Length
  3848 ;;		i1_EEPROM_Write
  3849 ;; This function is called by:
  3850 ;;		Interrupt level 1
  3851 ;; This function uses a non-reentrant model
  3852 ;;
  3853                           psect	text5,local,class=CODE,delta=2,merge=1,group=0
  3854                           	line	188
  3855                           global __ptext5
  3856                           __ptext5:	;psect for function _ISR
  3857  005A                     psect	text5
  3858                           	file	"main.c"
  3859                           	line	188
  3860                           	global	__size_of_ISR
  3861                           	__size_of_ISR	equ	__end_of_ISR-_ISR
  3862  0562                     	
  3863                           _ISR:	
  3864  005A                     ;incstack = 0
  3865                           	opt	stack 2
  3866                           ; Regs used in _ISR: [wreg-fsr0h+status,2+status,0+btemp+1+pclath+cstack]
  3867                           psect	intentry,class=CODE,delta=2
  3868                           global __pintentry
  3869                           __pintentry:
  3870  0004                     global interrupt_function
  3871                           interrupt_function:
  3872  0004                     	global saved_w
  3873                           	saved_w	set	btemp+0
  3874  007E                     	movwf	saved_w
  3875  0004  00FE               	swapf	status,w
  3876  0005  0E03               	bcf	status, 5	;RP0=0, select bank0
  3877  0006  1283               	bcf	status, 6	;RP1=0, select bank0
  3878  0007  1303               	movwf	(??_ISR+4)
  3879  0008  00CD               	movf	fsr0,w
  3880  0009  0804               	movwf	(??_ISR+5)
  3881  000A  00CE               	movf	pclath,w
  3882  000B  080A               	movwf	(??_ISR+6)
  3883  000C  00CF               	movf	btemp+1,w
  3884  000D  087F               	movwf	(??_ISR+7)
  3885  000E  00D0               	ljmp	_ISR
  3886  000F  120A  118A  285A   psect	text5
  3887                           	line	189
  3888                           	
  3889                           i1l2548:	
  3890  005A                     ;main.c: 189:     unsigned char crc_code_read[2] = "";
  3891                           	bsf	status, 5	;RP0=1, select bank1
  3892  005A  1683               	bcf	status, 6	;RP1=0, select bank1
  3893  005B  1303               	movf	(ISR@F1521+1)^080h,w
  3894  005C  0841               	bcf	status, 5	;RP0=0, select bank0
  3895  005D  1283               	bcf	status, 6	;RP1=0, select bank0
  3896  005E  1303               	movwf	(ISR@crc_code_read+1)
  3897  005F  00DA               	bsf	status, 5	;RP0=1, select bank1
  3898  0060  1683               	bcf	status, 6	;RP1=0, select bank1
  3899  0061  1303               	movf	(ISR@F1521)^080h,w
  3900  0062  0840               	bcf	status, 5	;RP0=0, select bank0
  3901  0063  1283               	bcf	status, 6	;RP1=0, select bank0
  3902  0064  1303               	movwf	(ISR@crc_code_read)
  3903  0065  00D9               	line	190
  3904                           ;main.c: 190:     unsigned char crc_code_response[2] = "";
  3905                           	bsf	status, 5	;RP0=1, select bank1
  3906  0066  1683               	bcf	status, 6	;RP1=0, select bank1
  3907  0067  1303               	movf	(ISR@F1523+1)^080h,w
  3908  0068  083F               	bcf	status, 5	;RP0=0, select bank0
  3909  0069  1283               	bcf	status, 6	;RP1=0, select bank0
  3910  006A  1303               	movwf	(ISR@crc_code_response+1)
  3911  006B  00DE               	bsf	status, 5	;RP0=1, select bank1
  3912  006C  1683               	bcf	status, 6	;RP1=0, select bank1
  3913  006D  1303               	movf	(ISR@F1523)^080h,w
  3914  006E  083E               	bcf	status, 5	;RP0=0, select bank0
  3915  006F  1283               	bcf	status, 6	;RP1=0, select bank0
  3916  0070  1303               	movwf	(ISR@crc_code_response)
  3917  0071  00DD               	line	191
  3918                           	
  3919                           i1l2550:	
  3920  0072                     ;main.c: 191:     unsigned char data[8] = "";
  3921                           	movlw	(ISR@data)&0ffh
  3922  0072  3051               	movwf	fsr0
  3923  0073  0084               	movlw	low(ISR@F1525)
  3924  0074  30A0               	movwf	(??_ISR+0)+0
  3925  0075  00C9               	movf	fsr0,w
  3926  0076  0804               	movwf	((??_ISR+0)+0+1)
  3927  0077  00CA               	movlw	8
  3928  0078  3008               	movwf	((??_ISR+0)+0+2)
  3929  0079  00CB               u220_20:
  3930  007A                     	movf	(??_ISR+0)+0,w
  3931  007A  0849               	movwf	fsr0
  3932  007B  0084               	bcf	status, 7	;select IRP bank1
  3933  007C  1383               	
  3934                           	movf	indf,w
  3935  007D  0800               	movwf	((??_ISR+0)+0+3)
  3936  007E  00CC               	incf	(??_ISR+0)+0,f
  3937  007F  0AC9               	movf	((??_ISR+0)+0+1),w
  3938  0080  084A               	movwf	fsr0
  3939  0081  0084               	
  3940                           	movf	((??_ISR+0)+0+3),w
  3941  0082  084C               	movwf	indf
  3942  0083  0080               	incf	((??_ISR+0)+0+1),f
  3943  0084  0ACA               	decfsz	((??_ISR+0)+0+2),f
  3944  0085  0BCB               	goto	u220_20
  3945  0086  287A               	
  3946                           	line	192
  3947                           	
  3948                           i1l2552:	
  3949  0087                     ;main.c: 192:     unsigned char i = 0;
  3950                           	clrf	(ISR@i)
  3951  0087  01DF               	line	194
  3952                           	
  3953                           i1l2554:	
  3954  0088                     ;main.c: 195:         if (UART_Data_Ready) {
  3955                           	btfss	(12),5	;volatile
  3956  0088  1E8C               	goto	u221_21
  3957  0089  288B               	goto	u221_20
  3958  008A  288C               u221_21:
  3959  008B                     	goto	i1l276
  3960  008B  2DAF               u221_20:
  3961  008C                     	line	196
  3962                           	
  3963                           i1l2556:	
  3964  008C                     ;main.c: 196:             UART_Read_Text(data, 8);
  3965                           	movlw	08h
  3966  008C  3008               	movwf	(UART_Read_Text@length)
  3967  008D  00F0               	movlw	0
  3968  008E  3000               	movwf	((UART_Read_Text@length))+1
  3969  008F  00F1               	movlw	(low(ISR@data|((0x0)<<8)))&0ffh
  3970  0090  3051               	fcall	_UART_Read_Text
  3971  0091  160A  118A  27DB  120A  118A  	line	197
  3972                           	
  3973                           i1l2558:	
  3974  0096                     ;main.c: 197:             CONVERT_Data_6Byte(data, crc_code_read);
  3975                           	movlw	(low(ISR@crc_code_read|((0x0)<<8)))&0ffh
  3976  0096  3059               	bcf	status, 5	;RP0=0, select bank0
  3977  0097  1283               	bcf	status, 6	;RP1=0, select bank0
  3978  0098  1303               	movwf	(??_ISR+0)+0
  3979  0099  00C9               	movf	(??_ISR+0)+0,w
  3980  009A  0849               	movwf	(CONVERT_Data_6Byte@output_ref)
  3981  009B  00FC               	movlw	(low(ISR@data|((0x0)<<8)))&0ffh
  3982  009C  3051               	fcall	_CONVERT_Data_6Byte
  3983  009D  120A  158A  2323  120A  118A  	line	199
  3984                           	
  3985                           i1l2560:	
  3986  00A2                     ;main.c: 199:             address = data[2];
  3987                           	bcf	status, 5	;RP0=0, select bank0
  3988  00A2  1283               	bcf	status, 6	;RP1=0, select bank0
  3989  00A3  1303               	movf	0+(ISR@data)+02h,w
  3990  00A4  0853               	movwf	(??_ISR+0)+0
  3991  00A5  00C9               	clrf	(??_ISR+0)+0+1
  3992  00A6  01CA               	movf	0+(??_ISR+0)+0,w
  3993  00A7  0849               	movwf	(ISR@address)
  3994  00A8  00DB               	movf	1+(??_ISR+0)+0,w
  3995  00A9  084A               	movwf	(ISR@address+1)
  3996  00AA  00DC               	line	200
  3997                           	
  3998                           i1l2562:	
  3999  00AB                     ;main.c: 200:             address = (address << 8) | data[3];
  4000                           	movf	0+(ISR@data)+03h,w
  4001  00AB  0854               	movwf	(??_ISR+0)+0
  4002  00AC  00C9               	clrf	(??_ISR+0)+0+1
  4003  00AD  01CA               	movf	(ISR@address),w
  4004  00AE  085B               	movwf	(??_ISR+2)+0+1
  4005  00AF  00CC               	clrf	(??_ISR+2)+0
  4006  00B0  01CB               	movf	0+(??_ISR+0)+0,w
  4007  00B1  0849               	iorwf	0+(??_ISR+2)+0,w
  4008  00B2  044B               	movwf	(ISR@address)
  4009  00B3  00DB               	movf	1+(??_ISR+0)+0,w
  4010  00B4  084A               	iorwf	1+(??_ISR+2)+0,w
  4011  00B5  044C               	movwf	1+(ISR@address)
  4012  00B6  00DC               	line	202
  4013                           	
  4014                           i1l2564:	
  4015  00B7                     ;main.c: 202:             if ((data[8 - 2] == crc_code_read[2 - 2])&&(data[8 - 1] == crc
                                 _code_read[2 - 1])) {
  4016                           	movf	0+(ISR@data)+06h,w
  4017  00B7  0857               	xorwf	(ISR@crc_code_read),w
  4018  00B8  0659               	skipz
  4019  00B9  1D03               	goto	u222_21
  4020  00BA  28BC               	goto	u222_20
  4021  00BB  28BD               u222_21:
  4022  00BC                     	goto	i1l276
  4023  00BC  2DAF               u222_20:
  4024  00BD                     	
  4025                           i1l2566:	
  4026  00BD                     	movf	0+(ISR@data)+07h,w
  4027  00BD  0858               	xorwf	0+(ISR@crc_code_read)+01h,w
  4028  00BE  065A               	skipz
  4029  00BF  1D03               	goto	u223_21
  4030  00C0  28C2               	goto	u223_20
  4031  00C1  28C3               u223_21:
  4032  00C2                     	goto	i1l276
  4033  00C2  2DAF               u223_20:
  4034  00C3                     	line	203
  4035                           	
  4036                           i1l2568:	
  4037  00C3                     ;main.c: 203:                 if (data[1] == 0x03) {
  4038                           		movlw	3
  4039  00C3  3003               	xorwf	(0+(ISR@data)+01h),w
  4040  00C4  0652               	btfss	status,2
  4041  00C5  1D03               	goto	u224_21
  4042  00C6  28C8               	goto	u224_20
  4043  00C7  28C9               u224_21:
  4044  00C8                     	goto	i1l2870
  4045  00C8  2D8E               u224_20:
  4046  00C9                     	goto	i1l2684
  4047  00C9  2AA6               	line	204
  4048                           	
  4049                           i1l2570:	
  4050  00CA                     ;main.c: 204:                     switch (address) {
  4051                           	goto	i1l2684
  4052  00CA  2AA6               	line	205
  4053                           ;main.c: 205:                         case 0x0000:
  4054                           	
  4055                           i1l220:	
  4056  00CB                     	line	206
  4057                           	
  4058                           i1l2572:	
  4059  00CB                     ;main.c: 206:                             for (i = 0; i < 8; i++) {
  4060                           	clrf	(ISR@i)
  4061  00CB  01DF               	
  4062                           i1l2574:	
  4063  00CC                     	movlw	low(08h)
  4064  00CC  3008               	subwf	(ISR@i),w
  4065  00CD  025F               	skipc
  4066  00CE  1C03               	goto	u225_21
  4067  00CF  28D1               	goto	u225_20
  4068  00D0  28D2               u225_21:
  4069  00D1                     	goto	i1l2578
  4070  00D1  28D4               u225_20:
  4071  00D2                     	goto	i1l2584
  4072  00D2  28F5               	
  4073                           i1l2576:	
  4074  00D3                     	goto	i1l2584
  4075  00D3  28F5               	
  4076                           i1l221:	
  4077  00D4                     	line	207
  4078                           	
  4079                           i1l2578:	
  4080  00D4                     ;main.c: 207:                                 data_response_13byte[3 + i] = EEPROM_Read(
                                 i);
  4081                           	movf	(ISR@i),w
  4082  00D4  085F               	movwf	(??_ISR+0)+0
  4083  00D5  00C9               	clrf	(??_ISR+0)+0+1
  4084  00D6  01CA               	movf	0+(??_ISR+0)+0,w
  4085  00D7  0849               	movwf	(EEPROM_Read@address)
  4086  00D8  00F0               	movf	1+(??_ISR+0)+0,w
  4087  00D9  084A               	movwf	(EEPROM_Read@address+1)
  4088  00DA  00F1               	fcall	_EEPROM_Read
  4089  00DB  160A  118A  277F  120A  118A  	bcf	status, 5	;RP0=0, select bank0
  4090  00E0  1283               	bcf	status, 6	;RP1=0, select bank0
  4091  00E1  1303               	movwf	(??_ISR+2)+0
  4092  00E2  00CB               	movf	(ISR@i),w
  4093  00E3  085F               	addlw	03h
  4094  00E4  3E03               	addlw	low(_data_response_13byte|((0x1)<<8))&0ffh
  4095  00E5  3EA6               	movwf	fsr0
  4096  00E6  0084               	movf	(??_ISR+2)+0,w
  4097  00E7  084B               	bsf	status, 7	;select IRP bank3
  4098  00E8  1783               	movwf	indf
  4099  00E9  0080               	line	208
  4100                           	
  4101                           i1l2580:	
  4102  00EA                     ;main.c: 208:                             }
  4103                           	movlw	low(01h)
  4104  00EA  3001               	movwf	(??_ISR+0)+0
  4105  00EB  00C9               	movf	(??_ISR+0)+0,w
  4106  00EC  0849               	addwf	(ISR@i),f
  4107  00ED  07DF               	
  4108                           i1l2582:	
  4109  00EE                     	movlw	low(08h)
  4110  00EE  3008               	subwf	(ISR@i),w
  4111  00EF  025F               	skipc
  4112  00F0  1C03               	goto	u226_21
  4113  00F1  28F3               	goto	u226_20
  4114  00F2  28F4               u226_21:
  4115  00F3                     	goto	i1l2578
  4116  00F3  28D4               u226_20:
  4117  00F4                     	goto	i1l2584
  4118  00F4  28F5               	
  4119                           i1l222:	
  4120  00F5                     	line	209
  4121                           	
  4122                           i1l2584:	
  4123  00F5                     ;main.c: 209:                             CONVERT_Data_11Byte(data_response_13byte, crc_
                                 code_response);
  4124                           	movlw	(low(ISR@crc_code_response|((0x0)<<8)))&0ffh
  4125  00F5  305D               	movwf	(??_ISR+0)+0
  4126  00F6  00C9               	movf	(??_ISR+0)+0,w
  4127  00F7  0849               	movwf	(CONVERT_Data_11Byte@output_ref)
  4128  00F8  00FC               	movlw	(low(_data_response_13byte|((0x1)<<8)))&0ffh
  4129  00F9  30A6               	fcall	_CONVERT_Data_11Byte
  4130  00FA  120A  158A  23BC  120A  118A  	line	210
  4131                           	
  4132                           i1l2586:	
  4133  00FF                     ;main.c: 210:                             data_response_13byte[11] = crc_code_response[0
                                 ];
  4134                           	bcf	status, 5	;RP0=0, select bank0
  4135  00FF  1283               	bcf	status, 6	;RP1=0, select bank0
  4136  0100  1303               	movf	(ISR@crc_code_response),w
  4137  0101  085D               	movwf	(??_ISR+0)+0
  4138  0102  00C9               	movf	(??_ISR+0)+0,w
  4139  0103  0849               	bsf	status, 5	;RP0=1, select bank3
  4140  0104  1683               	bsf	status, 6	;RP1=1, select bank3
  4141  0105  1703               	movwf	0+(_data_response_13byte)^0180h+0Bh
  4142  0106  00B1               	line	211
  4143                           	
  4144                           i1l2588:	
  4145  0107                     ;main.c: 211:                             data_response_13byte[12] = crc_code_response[1
                                 ];
  4146                           	bcf	status, 5	;RP0=0, select bank0
  4147  0107  1283               	bcf	status, 6	;RP1=0, select bank0
  4148  0108  1303               	movf	0+(ISR@crc_code_response)+01h,w
  4149  0109  085E               	movwf	(??_ISR+0)+0
  4150  010A  00C9               	movf	(??_ISR+0)+0,w
  4151  010B  0849               	bsf	status, 5	;RP0=1, select bank3
  4152  010C  1683               	bsf	status, 6	;RP1=1, select bank3
  4153  010D  1703               	movwf	0+(_data_response_13byte)^0180h+0Ch
  4154  010E  00B2               	line	212
  4155                           	
  4156                           i1l2590:	
  4157  010F                     ;main.c: 212:                             if (UART_TX_Empty())
  4158                           	fcall	_UART_TX_Empty
  4159  010F  160A  118A  275A  120A  118A  	xorlw	0
  4160  0114  3A00               	skipnz
  4161  0115  1903               	goto	u227_21
  4162  0116  2918               	goto	u227_20
  4163  0117  2919               u227_21:
  4164  0118                     	goto	i1l276
  4165  0118  2DAF               u227_20:
  4166  0119                     	line	213
  4167                           	
  4168                           i1l2592:	
  4169  0119                     ;main.c: 213:                                 UART_Write_Text_Length(data_response_13byt
                                 e, 13);
  4170                           	movlw	(low(_data_response_13byte|((0x1)<<8))&0ffh)
  4171  0119  30A6               	movwf	(UART_Write_Text_Length@str)
  4172  011A  00F1               	movlw	(0x1)
  4173  011B  3001               	movwf	(UART_Write_Text_Length@str+1)
  4174  011C  00F2               	movlw	0Dh
  4175  011D  300D               	movwf	(UART_Write_Text_Length@length)
  4176  011E  00F3               	movlw	0
  4177  011F  3000               	movwf	((UART_Write_Text_Length@length))+1
  4178  0120  00F4               	fcall	_UART_Write_Text_Length
  4179  0121  120A  118A  25BC  120A  118A  	goto	i1l276
  4180  0126  2DAF               	
  4181                           i1l223:	
  4182  0127                     	line	214
  4183                           ;main.c: 214:                             break;
  4184                           	goto	i1l276
  4185  0127  2DAF               	line	215
  4186                           ;main.c: 215:                         case 0x1006:
  4187                           	
  4188                           i1l225:	
  4189  0128                     	line	216
  4190                           	
  4191                           i1l2594:	
  4192  0128                     ;main.c: 216:                             for (i = 0; i < 2; i++) {
  4193                           	bcf	status, 5	;RP0=0, select bank0
  4194  0128  1283               	bcf	status, 6	;RP1=0, select bank0
  4195  0129  1303               	clrf	(ISR@i)
  4196  012A  01DF               	
  4197                           i1l2596:	
  4198  012B                     	movlw	low(02h)
  4199  012B  3002               	subwf	(ISR@i),w
  4200  012C  025F               	skipc
  4201  012D  1C03               	goto	u228_21
  4202  012E  2930               	goto	u228_20
  4203  012F  2931               u228_21:
  4204  0130                     	goto	i1l2600
  4205  0130  2933               u228_20:
  4206  0131                     	goto	i1l2606
  4207  0131  2954               	
  4208                           i1l2598:	
  4209  0132                     	goto	i1l2606
  4210  0132  2954               	
  4211                           i1l226:	
  4212  0133                     	line	217
  4213                           	
  4214                           i1l2600:	
  4215  0133                     ;main.c: 217:                                 data_response_7byte[3 + i] = EEPROM_Read(1
                                 006 + i);
  4216                           	movf	(ISR@i),w
  4217  0133  085F               	addlw	low(03EEh)
  4218  0134  3EEE               	movwf	(EEPROM_Read@address)
  4219  0135  00F0               	movlw	high(03EEh)
  4220  0136  3003               	skipnc
  4221  0137  1803               	movlw	(high(03EEh)+1)&0ffh
  4222  0138  3004               	movwf	((EEPROM_Read@address))+1
  4223  0139  00F1               	fcall	_EEPROM_Read
  4224  013A  160A  118A  277F  120A  118A  	bcf	status, 5	;RP0=0, select bank0
  4225  013F  1283               	bcf	status, 6	;RP1=0, select bank0
  4226  0140  1303               	movwf	(??_ISR+0)+0
  4227  0141  00C9               	movf	(ISR@i),w
  4228  0142  085F               	addlw	03h
  4229  0143  3E03               	addlw	low(_data_response_7byte|((0x0)<<8))&0ffh
  4230  0144  3EE4               	movwf	fsr0
  4231  0145  0084               	movf	(??_ISR+0)+0,w
  4232  0146  0849               	bcf	status, 7	;select IRP bank1
  4233  0147  1383               	movwf	indf
  4234  0148  0080               	line	218
  4235                           	
  4236                           i1l2602:	
  4237  0149                     ;main.c: 218:                             }
  4238                           	movlw	low(01h)
  4239  0149  3001               	movwf	(??_ISR+0)+0
  4240  014A  00C9               	movf	(??_ISR+0)+0,w
  4241  014B  0849               	addwf	(ISR@i),f
  4242  014C  07DF               	
  4243                           i1l2604:	
  4244  014D                     	movlw	low(02h)
  4245  014D  3002               	subwf	(ISR@i),w
  4246  014E  025F               	skipc
  4247  014F  1C03               	goto	u229_21
  4248  0150  2952               	goto	u229_20
  4249  0151  2953               u229_21:
  4250  0152                     	goto	i1l2600
  4251  0152  2933               u229_20:
  4252  0153                     	goto	i1l2606
  4253  0153  2954               	
  4254                           i1l227:	
  4255  0154                     	line	219
  4256                           	
  4257                           i1l2606:	
  4258  0154                     ;main.c: 219:                             CONVERT_Data_5Byte(data_response_7byte, crc_co
                                 de_response);
  4259                           	movlw	(low(ISR@crc_code_response|((0x0)<<8)))&0ffh
  4260  0154  305D               	movwf	(??_ISR+0)+0
  4261  0155  00C9               	movf	(??_ISR+0)+0,w
  4262  0156  0849               	movwf	(CONVERT_Data_5Byte@output_ref)
  4263  0157  00FC               	movlw	(low(_data_response_7byte|((0x0)<<8)))&0ffh
  4264  0158  30E4               	fcall	_CONVERT_Data_5Byte
  4265  0159  120A  158A  2290  120A  118A  	line	220
  4266                           	
  4267                           i1l2608:	
  4268  015E                     ;main.c: 220:                             data_response_7byte[5] = crc_code_response[0];
                                 
  4269                           	bcf	status, 5	;RP0=0, select bank0
  4270  015E  1283               	bcf	status, 6	;RP1=0, select bank0
  4271  015F  1303               	movf	(ISR@crc_code_response),w
  4272  0160  085D               	movwf	(??_ISR+0)+0
  4273  0161  00C9               	movf	(??_ISR+0)+0,w
  4274  0162  0849               	bsf	status, 5	;RP0=1, select bank1
  4275  0163  1683               	bcf	status, 6	;RP1=0, select bank1
  4276  0164  1303               	movwf	0+(_data_response_7byte)^080h+05h
  4277  0165  00E9               	line	221
  4278                           	
  4279                           i1l2610:	
  4280  0166                     ;main.c: 221:                             data_response_7byte[6] = crc_code_response[1];
                                 
  4281                           	bcf	status, 5	;RP0=0, select bank0
  4282  0166  1283               	bcf	status, 6	;RP1=0, select bank0
  4283  0167  1303               	movf	0+(ISR@crc_code_response)+01h,w
  4284  0168  085E               	movwf	(??_ISR+0)+0
  4285  0169  00C9               	movf	(??_ISR+0)+0,w
  4286  016A  0849               	bsf	status, 5	;RP0=1, select bank1
  4287  016B  1683               	bcf	status, 6	;RP1=0, select bank1
  4288  016C  1303               	movwf	0+(_data_response_7byte)^080h+06h
  4289  016D  00EA               	line	222
  4290                           	
  4291                           i1l2612:	
  4292  016E                     ;main.c: 222:                             if (UART_TX_Empty())
  4293                           	fcall	_UART_TX_Empty
  4294  016E  160A  118A  275A  120A  118A  	xorlw	0
  4295  0173  3A00               	skipnz
  4296  0174  1903               	goto	u230_21
  4297  0175  2977               	goto	u230_20
  4298  0176  2978               u230_21:
  4299  0177                     	goto	i1l276
  4300  0177  2DAF               u230_20:
  4301  0178                     	line	223
  4302                           	
  4303                           i1l2614:	
  4304  0178                     ;main.c: 223:                                 UART_Write_Text_Length(data_response_7byte
                                 , 7);
  4305                           	movlw	(low(_data_response_7byte|((0x0)<<8))&0ffh)
  4306  0178  30E4               	movwf	(UART_Write_Text_Length@str)
  4307  0179  00F1               	movlw	(0x0)
  4308  017A  3000               	movwf	(UART_Write_Text_Length@str+1)
  4309  017B  00F2               	movlw	07h
  4310  017C  3007               	movwf	(UART_Write_Text_Length@length)
  4311  017D  00F3               	movlw	0
  4312  017E  3000               	movwf	((UART_Write_Text_Length@length))+1
  4313  017F  00F4               	fcall	_UART_Write_Text_Length
  4314  0180  120A  118A  25BC  120A  118A  	goto	i1l276
  4315  0185  2DAF               	
  4316                           i1l228:	
  4317  0186                     	line	224
  4318                           ;main.c: 224:                             break;
  4319                           	goto	i1l276
  4320  0186  2DAF               	line	225
  4321                           ;main.c: 225:                         case 0x1008:
  4322                           	
  4323                           i1l229:	
  4324  0187                     	line	226
  4325                           	
  4326                           i1l2616:	
  4327  0187                     ;main.c: 226:                             for (i = 0; i < 2; i++) {
  4328                           	bcf	status, 5	;RP0=0, select bank0
  4329  0187  1283               	bcf	status, 6	;RP1=0, select bank0
  4330  0188  1303               	clrf	(ISR@i)
  4331  0189  01DF               	
  4332                           i1l2618:	
  4333  018A                     	movlw	low(02h)
  4334  018A  3002               	subwf	(ISR@i),w
  4335  018B  025F               	skipc
  4336  018C  1C03               	goto	u231_21
  4337  018D  298F               	goto	u231_20
  4338  018E  2990               u231_21:
  4339  018F                     	goto	i1l2622
  4340  018F  2992               u231_20:
  4341  0190                     	goto	i1l2628
  4342  0190  29B3               	
  4343                           i1l2620:	
  4344  0191                     	goto	i1l2628
  4345  0191  29B3               	
  4346                           i1l230:	
  4347  0192                     	line	227
  4348                           	
  4349                           i1l2622:	
  4350  0192                     ;main.c: 227:                                 data_response_7byte[3 + i] = EEPROM_Read(1
                                 008 + i);
  4351                           	movf	(ISR@i),w
  4352  0192  085F               	addlw	low(03F0h)
  4353  0193  3EF0               	movwf	(EEPROM_Read@address)
  4354  0194  00F0               	movlw	high(03F0h)
  4355  0195  3003               	skipnc
  4356  0196  1803               	movlw	(high(03F0h)+1)&0ffh
  4357  0197  3004               	movwf	((EEPROM_Read@address))+1
  4358  0198  00F1               	fcall	_EEPROM_Read
  4359  0199  160A  118A  277F  120A  118A  	bcf	status, 5	;RP0=0, select bank0
  4360  019E  1283               	bcf	status, 6	;RP1=0, select bank0
  4361  019F  1303               	movwf	(??_ISR+0)+0
  4362  01A0  00C9               	movf	(ISR@i),w
  4363  01A1  085F               	addlw	03h
  4364  01A2  3E03               	addlw	low(_data_response_7byte|((0x0)<<8))&0ffh
  4365  01A3  3EE4               	movwf	fsr0
  4366  01A4  0084               	movf	(??_ISR+0)+0,w
  4367  01A5  0849               	bcf	status, 7	;select IRP bank1
  4368  01A6  1383               	movwf	indf
  4369  01A7  0080               	line	228
  4370                           	
  4371                           i1l2624:	
  4372  01A8                     ;main.c: 228:                             }
  4373                           	movlw	low(01h)
  4374  01A8  3001               	movwf	(??_ISR+0)+0
  4375  01A9  00C9               	movf	(??_ISR+0)+0,w
  4376  01AA  0849               	addwf	(ISR@i),f
  4377  01AB  07DF               	
  4378                           i1l2626:	
  4379  01AC                     	movlw	low(02h)
  4380  01AC  3002               	subwf	(ISR@i),w
  4381  01AD  025F               	skipc
  4382  01AE  1C03               	goto	u232_21
  4383  01AF  29B1               	goto	u232_20
  4384  01B0  29B2               u232_21:
  4385  01B1                     	goto	i1l2622
  4386  01B1  2992               u232_20:
  4387  01B2                     	goto	i1l2628
  4388  01B2  29B3               	
  4389                           i1l231:	
  4390  01B3                     	line	229
  4391                           	
  4392                           i1l2628:	
  4393  01B3                     ;main.c: 229:                             CONVERT_Data_5Byte(data_response_7byte, crc_co
                                 de_response);
  4394                           	movlw	(low(ISR@crc_code_response|((0x0)<<8)))&0ffh
  4395  01B3  305D               	movwf	(??_ISR+0)+0
  4396  01B4  00C9               	movf	(??_ISR+0)+0,w
  4397  01B5  0849               	movwf	(CONVERT_Data_5Byte@output_ref)
  4398  01B6  00FC               	movlw	(low(_data_response_7byte|((0x0)<<8)))&0ffh
  4399  01B7  30E4               	fcall	_CONVERT_Data_5Byte
  4400  01B8  120A  158A  2290  120A  118A  	line	230
  4401                           	
  4402                           i1l2630:	
  4403  01BD                     ;main.c: 230:                             data_response_7byte[5] = crc_code_response[0];
                                 
  4404                           	bcf	status, 5	;RP0=0, select bank0
  4405  01BD  1283               	bcf	status, 6	;RP1=0, select bank0
  4406  01BE  1303               	movf	(ISR@crc_code_response),w
  4407  01BF  085D               	movwf	(??_ISR+0)+0
  4408  01C0  00C9               	movf	(??_ISR+0)+0,w
  4409  01C1  0849               	bsf	status, 5	;RP0=1, select bank1
  4410  01C2  1683               	bcf	status, 6	;RP1=0, select bank1
  4411  01C3  1303               	movwf	0+(_data_response_7byte)^080h+05h
  4412  01C4  00E9               	line	231
  4413                           	
  4414                           i1l2632:	
  4415  01C5                     ;main.c: 231:                             data_response_7byte[6] = crc_code_response[1];
                                 
  4416                           	bcf	status, 5	;RP0=0, select bank0
  4417  01C5  1283               	bcf	status, 6	;RP1=0, select bank0
  4418  01C6  1303               	movf	0+(ISR@crc_code_response)+01h,w
  4419  01C7  085E               	movwf	(??_ISR+0)+0
  4420  01C8  00C9               	movf	(??_ISR+0)+0,w
  4421  01C9  0849               	bsf	status, 5	;RP0=1, select bank1
  4422  01CA  1683               	bcf	status, 6	;RP1=0, select bank1
  4423  01CB  1303               	movwf	0+(_data_response_7byte)^080h+06h
  4424  01CC  00EA               	line	232
  4425                           	
  4426                           i1l2634:	
  4427  01CD                     ;main.c: 232:                             if (UART_TX_Empty())
  4428                           	fcall	_UART_TX_Empty
  4429  01CD  160A  118A  275A  120A  118A  	xorlw	0
  4430  01D2  3A00               	skipnz
  4431  01D3  1903               	goto	u233_21
  4432  01D4  29D6               	goto	u233_20
  4433  01D5  29D7               u233_21:
  4434  01D6                     	goto	i1l276
  4435  01D6  2DAF               u233_20:
  4436  01D7                     	line	233
  4437                           	
  4438                           i1l2636:	
  4439  01D7                     ;main.c: 233:                                 UART_Write_Text_Length(data_response_7byte
                                 , 7);
  4440                           	movlw	(low(_data_response_7byte|((0x0)<<8))&0ffh)
  4441  01D7  30E4               	movwf	(UART_Write_Text_Length@str)
  4442  01D8  00F1               	movlw	(0x0)
  4443  01D9  3000               	movwf	(UART_Write_Text_Length@str+1)
  4444  01DA  00F2               	movlw	07h
  4445  01DB  3007               	movwf	(UART_Write_Text_Length@length)
  4446  01DC  00F3               	movlw	0
  4447  01DD  3000               	movwf	((UART_Write_Text_Length@length))+1
  4448  01DE  00F4               	fcall	_UART_Write_Text_Length
  4449  01DF  120A  118A  25BC  120A  118A  	goto	i1l276
  4450  01E4  2DAF               	
  4451                           i1l232:	
  4452  01E5                     	line	235
  4453                           ;main.c: 235:                             break;
  4454                           	goto	i1l276
  4455  01E5  2DAF               	line	236
  4456                           ;main.c: 236:                         case 0x1010:
  4457                           	
  4458                           i1l233:	
  4459  01E6                     	line	238
  4460                           	
  4461                           i1l2638:	
  4462  01E6                     ;main.c: 238:                             for (i = 0; i < 2; i++) {
  4463                           	bcf	status, 5	;RP0=0, select bank0
  4464  01E6  1283               	bcf	status, 6	;RP1=0, select bank0
  4465  01E7  1303               	clrf	(ISR@i)
  4466  01E8  01DF               	
  4467                           i1l2640:	
  4468  01E9                     	movlw	low(02h)
  4469  01E9  3002               	subwf	(ISR@i),w
  4470  01EA  025F               	skipc
  4471  01EB  1C03               	goto	u234_21
  4472  01EC  29EE               	goto	u234_20
  4473  01ED  29EF               u234_21:
  4474  01EE                     	goto	i1l2644
  4475  01EE  29F1               u234_20:
  4476  01EF                     	goto	i1l2650
  4477  01EF  2A12               	
  4478                           i1l2642:	
  4479  01F0                     	goto	i1l2650
  4480  01F0  2A12               	
  4481                           i1l234:	
  4482  01F1                     	line	239
  4483                           	
  4484                           i1l2644:	
  4485  01F1                     ;main.c: 239:                                 data_response_7byte[3 + i] = EEPROM_Read(1
                                 010 + i);
  4486                           	movf	(ISR@i),w
  4487  01F1  085F               	addlw	low(03F2h)
  4488  01F2  3EF2               	movwf	(EEPROM_Read@address)
  4489  01F3  00F0               	movlw	high(03F2h)
  4490  01F4  3003               	skipnc
  4491  01F5  1803               	movlw	(high(03F2h)+1)&0ffh
  4492  01F6  3004               	movwf	((EEPROM_Read@address))+1
  4493  01F7  00F1               	fcall	_EEPROM_Read
  4494  01F8  160A  118A  277F  120A  118A  	bcf	status, 5	;RP0=0, select bank0
  4495  01FD  1283               	bcf	status, 6	;RP1=0, select bank0
  4496  01FE  1303               	movwf	(??_ISR+0)+0
  4497  01FF  00C9               	movf	(ISR@i),w
  4498  0200  085F               	addlw	03h
  4499  0201  3E03               	addlw	low(_data_response_7byte|((0x0)<<8))&0ffh
  4500  0202  3EE4               	movwf	fsr0
  4501  0203  0084               	movf	(??_ISR+0)+0,w
  4502  0204  0849               	bcf	status, 7	;select IRP bank1
  4503  0205  1383               	movwf	indf
  4504  0206  0080               	line	240
  4505                           	
  4506                           i1l2646:	
  4507  0207                     ;main.c: 240:                             }
  4508                           	movlw	low(01h)
  4509  0207  3001               	movwf	(??_ISR+0)+0
  4510  0208  00C9               	movf	(??_ISR+0)+0,w
  4511  0209  0849               	addwf	(ISR@i),f
  4512  020A  07DF               	
  4513                           i1l2648:	
  4514  020B                     	movlw	low(02h)
  4515  020B  3002               	subwf	(ISR@i),w
  4516  020C  025F               	skipc
  4517  020D  1C03               	goto	u235_21
  4518  020E  2A10               	goto	u235_20
  4519  020F  2A11               u235_21:
  4520  0210                     	goto	i1l2644
  4521  0210  29F1               u235_20:
  4522  0211                     	goto	i1l2650
  4523  0211  2A12               	
  4524                           i1l235:	
  4525  0212                     	line	241
  4526                           	
  4527                           i1l2650:	
  4528  0212                     ;main.c: 241:                             CONVERT_Data_5Byte(data_response_7byte, crc_co
                                 de_response);
  4529                           	movlw	(low(ISR@crc_code_response|((0x0)<<8)))&0ffh
  4530  0212  305D               	movwf	(??_ISR+0)+0
  4531  0213  00C9               	movf	(??_ISR+0)+0,w
  4532  0214  0849               	movwf	(CONVERT_Data_5Byte@output_ref)
  4533  0215  00FC               	movlw	(low(_data_response_7byte|((0x0)<<8)))&0ffh
  4534  0216  30E4               	fcall	_CONVERT_Data_5Byte
  4535  0217  120A  158A  2290  120A  118A  	line	242
  4536                           	
  4537                           i1l2652:	
  4538  021C                     ;main.c: 242:                             data_response_7byte[5] = crc_code_response[0];
                                 
  4539                           	bcf	status, 5	;RP0=0, select bank0
  4540  021C  1283               	bcf	status, 6	;RP1=0, select bank0
  4541  021D  1303               	movf	(ISR@crc_code_response),w
  4542  021E  085D               	movwf	(??_ISR+0)+0
  4543  021F  00C9               	movf	(??_ISR+0)+0,w
  4544  0220  0849               	bsf	status, 5	;RP0=1, select bank1
  4545  0221  1683               	bcf	status, 6	;RP1=0, select bank1
  4546  0222  1303               	movwf	0+(_data_response_7byte)^080h+05h
  4547  0223  00E9               	line	243
  4548                           	
  4549                           i1l2654:	
  4550  0224                     ;main.c: 243:                             data_response_7byte[6] = crc_code_response[1];
                                 
  4551                           	bcf	status, 5	;RP0=0, select bank0
  4552  0224  1283               	bcf	status, 6	;RP1=0, select bank0
  4553  0225  1303               	movf	0+(ISR@crc_code_response)+01h,w
  4554  0226  085E               	movwf	(??_ISR+0)+0
  4555  0227  00C9               	movf	(??_ISR+0)+0,w
  4556  0228  0849               	bsf	status, 5	;RP0=1, select bank1
  4557  0229  1683               	bcf	status, 6	;RP1=0, select bank1
  4558  022A  1303               	movwf	0+(_data_response_7byte)^080h+06h
  4559  022B  00EA               	line	244
  4560                           	
  4561                           i1l2656:	
  4562  022C                     ;main.c: 244:                             if (UART_TX_Empty())
  4563                           	fcall	_UART_TX_Empty
  4564  022C  160A  118A  275A  120A  118A  	xorlw	0
  4565  0231  3A00               	skipnz
  4566  0232  1903               	goto	u236_21
  4567  0233  2A35               	goto	u236_20
  4568  0234  2A36               u236_21:
  4569  0235                     	goto	i1l276
  4570  0235  2DAF               u236_20:
  4571  0236                     	line	245
  4572                           	
  4573                           i1l2658:	
  4574  0236                     ;main.c: 245:                                 UART_Write_Text_Length(data_response_7byte
                                 , 7);
  4575                           	movlw	(low(_data_response_7byte|((0x0)<<8))&0ffh)
  4576  0236  30E4               	movwf	(UART_Write_Text_Length@str)
  4577  0237  00F1               	movlw	(0x0)
  4578  0238  3000               	movwf	(UART_Write_Text_Length@str+1)
  4579  0239  00F2               	movlw	07h
  4580  023A  3007               	movwf	(UART_Write_Text_Length@length)
  4581  023B  00F3               	movlw	0
  4582  023C  3000               	movwf	((UART_Write_Text_Length@length))+1
  4583  023D  00F4               	fcall	_UART_Write_Text_Length
  4584  023E  120A  118A  25BC  120A  118A  	goto	i1l276
  4585  0243  2DAF               	
  4586                           i1l236:	
  4587  0244                     	line	247
  4588                           ;main.c: 247:                             break;
  4589                           	goto	i1l276
  4590  0244  2DAF               	line	248
  4591                           ;main.c: 248:                         case 0x2002:
  4592                           	
  4593                           i1l237:	
  4594  0245                     	line	249
  4595                           	
  4596                           i1l2660:	
  4597  0245                     ;main.c: 249:                             for (i = 0; i < 2; i++) {
  4598                           	bcf	status, 5	;RP0=0, select bank0
  4599  0245  1283               	bcf	status, 6	;RP1=0, select bank0
  4600  0246  1303               	clrf	(ISR@i)
  4601  0247  01DF               	
  4602                           i1l2662:	
  4603  0248                     	movlw	low(02h)
  4604  0248  3002               	subwf	(ISR@i),w
  4605  0249  025F               	skipc
  4606  024A  1C03               	goto	u237_21
  4607  024B  2A4D               	goto	u237_20
  4608  024C  2A4E               u237_21:
  4609  024D                     	goto	i1l2666
  4610  024D  2A50               u237_20:
  4611  024E                     	goto	i1l2672
  4612  024E  2A71               	
  4613                           i1l2664:	
  4614  024F                     	goto	i1l2672
  4615  024F  2A71               	
  4616                           i1l238:	
  4617  0250                     	line	250
  4618                           	
  4619                           i1l2666:	
  4620  0250                     ;main.c: 250:                                 data_response_7byte[3 + i] = EEPROM_Read(2
                                 002 + i);
  4621                           	movf	(ISR@i),w
  4622  0250  085F               	addlw	low(07D2h)
  4623  0251  3ED2               	movwf	(EEPROM_Read@address)
  4624  0252  00F0               	movlw	high(07D2h)
  4625  0253  3007               	skipnc
  4626  0254  1803               	movlw	(high(07D2h)+1)&0ffh
  4627  0255  3008               	movwf	((EEPROM_Read@address))+1
  4628  0256  00F1               	fcall	_EEPROM_Read
  4629  0257  160A  118A  277F  120A  118A  	bcf	status, 5	;RP0=0, select bank0
  4630  025C  1283               	bcf	status, 6	;RP1=0, select bank0
  4631  025D  1303               	movwf	(??_ISR+0)+0
  4632  025E  00C9               	movf	(ISR@i),w
  4633  025F  085F               	addlw	03h
  4634  0260  3E03               	addlw	low(_data_response_7byte|((0x0)<<8))&0ffh
  4635  0261  3EE4               	movwf	fsr0
  4636  0262  0084               	movf	(??_ISR+0)+0,w
  4637  0263  0849               	bcf	status, 7	;select IRP bank1
  4638  0264  1383               	movwf	indf
  4639  0265  0080               	line	251
  4640                           	
  4641                           i1l2668:	
  4642  0266                     ;main.c: 251:                             }
  4643                           	movlw	low(01h)
  4644  0266  3001               	movwf	(??_ISR+0)+0
  4645  0267  00C9               	movf	(??_ISR+0)+0,w
  4646  0268  0849               	addwf	(ISR@i),f
  4647  0269  07DF               	
  4648                           i1l2670:	
  4649  026A                     	movlw	low(02h)
  4650  026A  3002               	subwf	(ISR@i),w
  4651  026B  025F               	skipc
  4652  026C  1C03               	goto	u238_21
  4653  026D  2A6F               	goto	u238_20
  4654  026E  2A70               u238_21:
  4655  026F                     	goto	i1l2666
  4656  026F  2A50               u238_20:
  4657  0270                     	goto	i1l2672
  4658  0270  2A71               	
  4659                           i1l239:	
  4660  0271                     	line	252
  4661                           	
  4662                           i1l2672:	
  4663  0271                     ;main.c: 252:                             CONVERT_Data_5Byte(data_response_7byte, crc_co
                                 de_response);
  4664                           	movlw	(low(ISR@crc_code_response|((0x0)<<8)))&0ffh
  4665  0271  305D               	movwf	(??_ISR+0)+0
  4666  0272  00C9               	movf	(??_ISR+0)+0,w
  4667  0273  0849               	movwf	(CONVERT_Data_5Byte@output_ref)
  4668  0274  00FC               	movlw	(low(_data_response_7byte|((0x0)<<8)))&0ffh
  4669  0275  30E4               	fcall	_CONVERT_Data_5Byte
  4670  0276  120A  158A  2290  120A  118A  	line	253
  4671                           	
  4672                           i1l2674:	
  4673  027B                     ;main.c: 253:                             data_response_7byte[5] = crc_code_response[0];
                                 
  4674                           	bcf	status, 5	;RP0=0, select bank0
  4675  027B  1283               	bcf	status, 6	;RP1=0, select bank0
  4676  027C  1303               	movf	(ISR@crc_code_response),w
  4677  027D  085D               	movwf	(??_ISR+0)+0
  4678  027E  00C9               	movf	(??_ISR+0)+0,w
  4679  027F  0849               	bsf	status, 5	;RP0=1, select bank1
  4680  0280  1683               	bcf	status, 6	;RP1=0, select bank1
  4681  0281  1303               	movwf	0+(_data_response_7byte)^080h+05h
  4682  0282  00E9               	line	254
  4683                           	
  4684                           i1l2676:	
  4685  0283                     ;main.c: 254:                             data_response_7byte[6] = crc_code_response[1];
                                 
  4686                           	bcf	status, 5	;RP0=0, select bank0
  4687  0283  1283               	bcf	status, 6	;RP1=0, select bank0
  4688  0284  1303               	movf	0+(ISR@crc_code_response)+01h,w
  4689  0285  085E               	movwf	(??_ISR+0)+0
  4690  0286  00C9               	movf	(??_ISR+0)+0,w
  4691  0287  0849               	bsf	status, 5	;RP0=1, select bank1
  4692  0288  1683               	bcf	status, 6	;RP1=0, select bank1
  4693  0289  1303               	movwf	0+(_data_response_7byte)^080h+06h
  4694  028A  00EA               	line	255
  4695                           	
  4696                           i1l2678:	
  4697  028B                     ;main.c: 255:                             if (UART_TX_Empty())
  4698                           	fcall	_UART_TX_Empty
  4699  028B  160A  118A  275A  120A  118A  	xorlw	0
  4700  0290  3A00               	skipnz
  4701  0291  1903               	goto	u239_21
  4702  0292  2A94               	goto	u239_20
  4703  0293  2A95               u239_21:
  4704  0294                     	goto	i1l276
  4705  0294  2DAF               u239_20:
  4706  0295                     	line	256
  4707                           	
  4708                           i1l2680:	
  4709  0295                     ;main.c: 256:                                 UART_Write_Text_Length(data_response_7byte
                                 , 7);
  4710                           	movlw	(low(_data_response_7byte|((0x0)<<8))&0ffh)
  4711  0295  30E4               	movwf	(UART_Write_Text_Length@str)
  4712  0296  00F1               	movlw	(0x0)
  4713  0297  3000               	movwf	(UART_Write_Text_Length@str+1)
  4714  0298  00F2               	movlw	07h
  4715  0299  3007               	movwf	(UART_Write_Text_Length@length)
  4716  029A  00F3               	movlw	0
  4717  029B  3000               	movwf	((UART_Write_Text_Length@length))+1
  4718  029C  00F4               	fcall	_UART_Write_Text_Length
  4719  029D  120A  118A  25BC  120A  118A  	goto	i1l276
  4720  02A2  2DAF               	
  4721                           i1l240:	
  4722  02A3                     	line	258
  4723                           ;main.c: 258:                             break;
  4724                           	goto	i1l276
  4725  02A3  2DAF               	line	260
  4726                           ;main.c: 260:                         default:
  4727                           	
  4728                           i1l241:	
  4729  02A4                     	line	261
  4730                           ;main.c: 261:                             break;
  4731                           	goto	i1l276
  4732  02A4  2DAF               	line	262
  4733                           	
  4734                           i1l2682:	
  4735  02A5                     ;main.c: 262:                     }
  4736                           	goto	i1l276
  4737  02A5  2DAF               	
  4738                           i1l219:	
  4739  02A6                     	
  4740                           i1l2684:	
  4741  02A6                     	; Switch on 2 bytes has been partitioned into a top level switch of size 1, and 3 sub-s
                                 witches
  4742                           ; Switch size 1, requested type "space"
  4743                           ; Number of cases is 3, Range of values is 0 to 32
  4744                           ; switch strategies available:
  4745                           ; Name         Instructions Cycles
  4746                           ; simple_byte           10     6 (average)
  4747                           ; direct_byte          107     8 (fixed)
  4748                           ; jumptable            260     6 (fixed)
  4749                           ;	Chosen strategy is simple_byte
  4750                           
  4751                           	bcf	status, 5	;RP0=0, select bank0
  4752  02A6  1283               	bcf	status, 6	;RP1=0, select bank0
  4753  02A7  1303               	movf (ISR@address+1),w
  4754  02A8  085C               	opt asmopt_push
  4755                           	opt asmopt_off
  4756                           	xorlw	0^0	; case 0
  4757  02A9  3A00               	skipnz
  4758  02AA  1903               	goto	i1l2992
  4759  02AB  2AB3               	xorlw	16^0	; case 16
  4760  02AC  3A10               	skipnz
  4761  02AD  1903               	goto	i1l2994
  4762  02AE  2AB8               	xorlw	32^16	; case 32
  4763  02AF  3A30               	skipnz
  4764  02B0  1903               	goto	i1l2996
  4765  02B1  2AC3               	goto	i1l276
  4766  02B2  2DAF               	opt asmopt_pop
  4767                           	
  4768                           i1l2992:	
  4769  02B3                     ; Switch size 1, requested type "space"
  4770                           ; Number of cases is 1, Range of values is 0 to 0
  4771                           ; switch strategies available:
  4772                           ; Name         Instructions Cycles
  4773                           ; simple_byte            4     3 (average)
  4774                           ; direct_byte           11     8 (fixed)
  4775                           ; jumptable            260     6 (fixed)
  4776                           ;	Chosen strategy is simple_byte
  4777                           
  4778                           	movf (ISR@address),w
  4779  02B3  085B               	opt asmopt_push
  4780                           	opt asmopt_off
  4781                           	xorlw	0^0	; case 0
  4782  02B4  3A00               	skipnz
  4783  02B5  1903               	goto	i1l2572
  4784  02B6  28CB               	goto	i1l276
  4785  02B7  2DAF               	opt asmopt_pop
  4786                           	
  4787                           i1l2994:	
  4788  02B8                     ; Switch size 1, requested type "space"
  4789                           ; Number of cases is 3, Range of values is 6 to 16
  4790                           ; switch strategies available:
  4791                           ; Name         Instructions Cycles
  4792                           ; simple_byte           10     6 (average)
  4793                           ; direct_byte           44    11 (fixed)
  4794                           ; jumptable            263     9 (fixed)
  4795                           ;	Chosen strategy is simple_byte
  4796                           
  4797                           	movf (ISR@address),w
  4798  02B8  085B               	opt asmopt_push
  4799                           	opt asmopt_off
  4800                           	xorlw	6^0	; case 6
  4801  02B9  3A06               	skipnz
  4802  02BA  1903               	goto	i1l2594
  4803  02BB  2928               	xorlw	8^6	; case 8
  4804  02BC  3A0E               	skipnz
  4805  02BD  1903               	goto	i1l2616
  4806  02BE  2987               	xorlw	16^8	; case 16
  4807  02BF  3A18               	skipnz
  4808  02C0  1903               	goto	i1l2638
  4809  02C1  29E6               	goto	i1l276
  4810  02C2  2DAF               	opt asmopt_pop
  4811                           	
  4812                           i1l2996:	
  4813  02C3                     ; Switch size 1, requested type "space"
  4814                           ; Number of cases is 1, Range of values is 2 to 2
  4815                           ; switch strategies available:
  4816                           ; Name         Instructions Cycles
  4817                           ; simple_byte            4     3 (average)
  4818                           ; direct_byte           14    11 (fixed)
  4819                           ; jumptable            263     9 (fixed)
  4820                           ;	Chosen strategy is simple_byte
  4821                           
  4822                           	movf (ISR@address),w
  4823  02C3  085B               	opt asmopt_push
  4824                           	opt asmopt_off
  4825                           	xorlw	2^0	; case 2
  4826  02C4  3A02               	skipnz
  4827  02C5  1903               	goto	i1l2660
  4828  02C6  2A45               	goto	i1l276
  4829  02C7  2DAF               	opt asmopt_pop
  4830                           
  4831                           	
  4832                           i1l224:	
  4833  02C8                     	line	263
  4834                           ;main.c: 263:                 } else {
  4835                           	goto	i1l276
  4836  02C8  2DAF               	
  4837                           i1l218:	
  4838  02C9                     	line	264
  4839                           ;main.c: 264:                     switch (address) {
  4840                           	goto	i1l2870
  4841  02C9  2D8E               	line	265
  4842                           ;main.c: 265:                         case 0x1000:
  4843                           	
  4844                           i1l244:	
  4845  02CA                     	line	266
  4846                           	
  4847                           i1l2686:	
  4848  02CA                     ;main.c: 266:                             for (i = 0; i < 2; i++) {
  4849                           	clrf	(ISR@i)
  4850  02CA  01DF               	
  4851                           i1l2688:	
  4852  02CB                     	movlw	low(02h)
  4853  02CB  3002               	subwf	(ISR@i),w
  4854  02CC  025F               	skipc
  4855  02CD  1C03               	goto	u240_21
  4856  02CE  2AD0               	goto	u240_20
  4857  02CF  2AD1               u240_21:
  4858  02D0                     	goto	i1l2692
  4859  02D0  2AD3               u240_20:
  4860  02D1                     	goto	i1l2698
  4861  02D1  2AF5               	
  4862                           i1l2690:	
  4863  02D2                     	goto	i1l2698
  4864  02D2  2AF5               	
  4865                           i1l245:	
  4866  02D3                     	line	267
  4867                           	
  4868                           i1l2692:	
  4869  02D3                     ;main.c: 267:                                 EEPROM_Write(1000 + i, data[4 + i]);
  4870                           	movf	(ISR@i),w
  4871  02D3  085F               	addlw	low(03E8h)
  4872  02D4  3EE8               	movwf	(i1EEPROM_Write@address)
  4873  02D5  00F0               	movlw	high(03E8h)
  4874  02D6  3003               	skipnc
  4875  02D7  1803               	movlw	(high(03E8h)+1)&0ffh
  4876  02D8  3004               	movwf	((i1EEPROM_Write@address))+1
  4877  02D9  00F1               	movf	(ISR@i),w
  4878  02DA  085F               	addlw	04h
  4879  02DB  3E04               	addlw	low(ISR@data|((0x0)<<8))&0ffh
  4880  02DC  3E51               	movwf	fsr0
  4881  02DD  0084               	bcf	status, 7	;select IRP bank0
  4882  02DE  1383               	movf	indf,w
  4883  02DF  0800               	movwf	(??_ISR+0)+0
  4884  02E0  00C9               	movf	(??_ISR+0)+0,w
  4885  02E1  0849               	movwf	(i1EEPROM_Write@data)
  4886  02E2  00F2               	fcall	i1_EEPROM_Write
  4887  02E3  120A  158A  2220  120A  118A  	line	268
  4888                           	
  4889                           i1l2694:	
  4890  02E8                     ;main.c: 268:                             }
  4891                           	movlw	low(01h)
  4892  02E8  3001               	bcf	status, 5	;RP0=0, select bank0
  4893  02E9  1283               	bcf	status, 6	;RP1=0, select bank0
  4894  02EA  1303               	movwf	(??_ISR+0)+0
  4895  02EB  00C9               	movf	(??_ISR+0)+0,w
  4896  02EC  0849               	addwf	(ISR@i),f
  4897  02ED  07DF               	
  4898                           i1l2696:	
  4899  02EE                     	movlw	low(02h)
  4900  02EE  3002               	subwf	(ISR@i),w
  4901  02EF  025F               	skipc
  4902  02F0  1C03               	goto	u241_21
  4903  02F1  2AF3               	goto	u241_20
  4904  02F2  2AF4               u241_21:
  4905  02F3                     	goto	i1l2692
  4906  02F3  2AD3               u241_20:
  4907  02F4                     	goto	i1l2698
  4908  02F4  2AF5               	
  4909                           i1l246:	
  4910  02F5                     	line	269
  4911                           	
  4912                           i1l2698:	
  4913  02F5                     ;main.c: 269:                             data_response_8byte[3] = address;
  4914                           	movf	(ISR@address),w
  4915  02F5  085B               	movwf	(??_ISR+0)+0
  4916  02F6  00C9               	movf	(??_ISR+0)+0,w
  4917  02F7  0849               	movwf	0+(_data_response_8byte)+03h
  4918  02F8  00E3               	line	270
  4919                           	
  4920                           i1l2700:	
  4921  02F9                     ;main.c: 270:                             data_response_8byte[2] = (char) (address >> 8)
                                 ;
  4922                           	movf	(ISR@address+1),w
  4923  02F9  085C               	movwf	(??_ISR+0)+0
  4924  02FA  00C9               	movf	(??_ISR+0)+0,w
  4925  02FB  0849               	movwf	0+(_data_response_8byte)+02h
  4926  02FC  00E2               	line	271
  4927                           ;main.c: 271:                             for (i = 0; i < 2; i++) {
  4928                           	clrf	(ISR@i)
  4929  02FD  01DF               	
  4930                           i1l2702:	
  4931  02FE                     	movlw	low(02h)
  4932  02FE  3002               	subwf	(ISR@i),w
  4933  02FF  025F               	skipc
  4934  0300  1C03               	goto	u242_21
  4935  0301  2B03               	goto	u242_20
  4936  0302  2B04               u242_21:
  4937  0303                     	goto	i1l2706
  4938  0303  2B06               u242_20:
  4939  0304                     	goto	i1l2712
  4940  0304  2B27               	
  4941                           i1l2704:	
  4942  0305                     	goto	i1l2712
  4943  0305  2B27               	
  4944                           i1l247:	
  4945  0306                     	line	272
  4946                           	
  4947                           i1l2706:	
  4948  0306                     ;main.c: 272:                                 data_response_8byte[4 + i] = EEPROM_Read(1
                                 000 + i);
  4949                           	movf	(ISR@i),w
  4950  0306  085F               	addlw	low(03E8h)
  4951  0307  3EE8               	movwf	(EEPROM_Read@address)
  4952  0308  00F0               	movlw	high(03E8h)
  4953  0309  3003               	skipnc
  4954  030A  1803               	movlw	(high(03E8h)+1)&0ffh
  4955  030B  3004               	movwf	((EEPROM_Read@address))+1
  4956  030C  00F1               	fcall	_EEPROM_Read
  4957  030D  160A  118A  277F  120A  118A  	bcf	status, 5	;RP0=0, select bank0
  4958  0312  1283               	bcf	status, 6	;RP1=0, select bank0
  4959  0313  1303               	movwf	(??_ISR+0)+0
  4960  0314  00C9               	movf	(ISR@i),w
  4961  0315  085F               	addlw	04h
  4962  0316  3E04               	addlw	low(_data_response_8byte|((0x0)<<8))&0ffh
  4963  0317  3E60               	movwf	fsr0
  4964  0318  0084               	movf	(??_ISR+0)+0,w
  4965  0319  0849               	bcf	status, 7	;select IRP bank0
  4966  031A  1383               	movwf	indf
  4967  031B  0080               	line	274
  4968                           	
  4969                           i1l2708:	
  4970  031C                     ;main.c: 274:                             }
  4971                           	movlw	low(01h)
  4972  031C  3001               	movwf	(??_ISR+0)+0
  4973  031D  00C9               	movf	(??_ISR+0)+0,w
  4974  031E  0849               	addwf	(ISR@i),f
  4975  031F  07DF               	
  4976                           i1l2710:	
  4977  0320                     	movlw	low(02h)
  4978  0320  3002               	subwf	(ISR@i),w
  4979  0321  025F               	skipc
  4980  0322  1C03               	goto	u243_21
  4981  0323  2B25               	goto	u243_20
  4982  0324  2B26               u243_21:
  4983  0325                     	goto	i1l2706
  4984  0325  2B06               u243_20:
  4985  0326                     	goto	i1l2712
  4986  0326  2B27               	
  4987                           i1l248:	
  4988  0327                     	line	275
  4989                           	
  4990                           i1l2712:	
  4991  0327                     ;main.c: 275:                             CONVERT_Data_6Byte(data_response_8byte, crc_co
                                 de_response);
  4992                           	movlw	(low(ISR@crc_code_response|((0x0)<<8)))&0ffh
  4993  0327  305D               	movwf	(??_ISR+0)+0
  4994  0328  00C9               	movf	(??_ISR+0)+0,w
  4995  0329  0849               	movwf	(CONVERT_Data_6Byte@output_ref)
  4996  032A  00FC               	movlw	(low(_data_response_8byte|((0x0)<<8)))&0ffh
  4997  032B  3060               	fcall	_CONVERT_Data_6Byte
  4998  032C  120A  158A  2323  120A  118A  	line	276
  4999                           	
  5000                           i1l2714:	
  5001  0331                     ;main.c: 276:                             data_response_8byte[6] = crc_code_response[0];
                                 
  5002                           	bcf	status, 5	;RP0=0, select bank0
  5003  0331  1283               	bcf	status, 6	;RP1=0, select bank0
  5004  0332  1303               	movf	(ISR@crc_code_response),w
  5005  0333  085D               	movwf	(??_ISR+0)+0
  5006  0334  00C9               	movf	(??_ISR+0)+0,w
  5007  0335  0849               	movwf	0+(_data_response_8byte)+06h
  5008  0336  00E6               	line	277
  5009                           	
  5010                           i1l2716:	
  5011  0337                     ;main.c: 277:                             data_response_8byte[7] = crc_code_response[1];
                                 
  5012                           	movf	0+(ISR@crc_code_response)+01h,w
  5013  0337  085E               	movwf	(??_ISR+0)+0
  5014  0338  00C9               	movf	(??_ISR+0)+0,w
  5015  0339  0849               	movwf	0+(_data_response_8byte)+07h
  5016  033A  00E7               	line	278
  5017                           	
  5018                           i1l2718:	
  5019  033B                     ;main.c: 278:                             if (UART_TX_Empty())
  5020                           	fcall	_UART_TX_Empty
  5021  033B  160A  118A  275A  120A  118A  	xorlw	0
  5022  0340  3A00               	skipnz
  5023  0341  1903               	goto	u244_21
  5024  0342  2B44               	goto	u244_20
  5025  0343  2B45               u244_21:
  5026  0344                     	goto	i1l276
  5027  0344  2DAF               u244_20:
  5028  0345                     	line	279
  5029                           	
  5030                           i1l2720:	
  5031  0345                     ;main.c: 279:                                 UART_Write_Text_Length(data_response_8byte
                                 , 8);
  5032                           	movlw	(low(_data_response_8byte|((0x0)<<8))&0ffh)
  5033  0345  3060               	movwf	(UART_Write_Text_Length@str)
  5034  0346  00F1               	movlw	(0x0)
  5035  0347  3000               	movwf	(UART_Write_Text_Length@str+1)
  5036  0348  00F2               	movlw	08h
  5037  0349  3008               	movwf	(UART_Write_Text_Length@length)
  5038  034A  00F3               	movlw	0
  5039  034B  3000               	movwf	((UART_Write_Text_Length@length))+1
  5040  034C  00F4               	fcall	_UART_Write_Text_Length
  5041  034D  120A  118A  25BC  120A  118A  	goto	i1l276
  5042  0352  2DAF               	
  5043                           i1l249:	
  5044  0353                     	line	281
  5045                           ;main.c: 281:                             break;
  5046                           	goto	i1l276
  5047  0353  2DAF               	line	283
  5048                           ;main.c: 283:                         case 0x1004:
  5049                           	
  5050                           i1l251:	
  5051  0354                     	line	284
  5052                           	
  5053                           i1l2722:	
  5054  0354                     ;main.c: 284:                             for (i = 0; i < 2; i++) {
  5055                           	bcf	status, 5	;RP0=0, select bank0
  5056  0354  1283               	bcf	status, 6	;RP1=0, select bank0
  5057  0355  1303               	clrf	(ISR@i)
  5058  0356  01DF               	
  5059                           i1l2724:	
  5060  0357                     	movlw	low(02h)
  5061  0357  3002               	subwf	(ISR@i),w
  5062  0358  025F               	skipc
  5063  0359  1C03               	goto	u245_21
  5064  035A  2B5C               	goto	u245_20
  5065  035B  2B5D               u245_21:
  5066  035C                     	goto	i1l2728
  5067  035C  2B5F               u245_20:
  5068  035D                     	goto	i1l2734
  5069  035D  2B81               	
  5070                           i1l2726:	
  5071  035E                     	goto	i1l2734
  5072  035E  2B81               	
  5073                           i1l252:	
  5074  035F                     	line	285
  5075                           	
  5076                           i1l2728:	
  5077  035F                     ;main.c: 285:                                 EEPROM_Write(1004 + i, data[4 + i]);
  5078                           	movf	(ISR@i),w
  5079  035F  085F               	addlw	low(03ECh)
  5080  0360  3EEC               	movwf	(i1EEPROM_Write@address)
  5081  0361  00F0               	movlw	high(03ECh)
  5082  0362  3003               	skipnc
  5083  0363  1803               	movlw	(high(03ECh)+1)&0ffh
  5084  0364  3004               	movwf	((i1EEPROM_Write@address))+1
  5085  0365  00F1               	movf	(ISR@i),w
  5086  0366  085F               	addlw	04h
  5087  0367  3E04               	addlw	low(ISR@data|((0x0)<<8))&0ffh
  5088  0368  3E51               	movwf	fsr0
  5089  0369  0084               	bcf	status, 7	;select IRP bank0
  5090  036A  1383               	movf	indf,w
  5091  036B  0800               	movwf	(??_ISR+0)+0
  5092  036C  00C9               	movf	(??_ISR+0)+0,w
  5093  036D  0849               	movwf	(i1EEPROM_Write@data)
  5094  036E  00F2               	fcall	i1_EEPROM_Write
  5095  036F  120A  158A  2220  120A  118A  	line	286
  5096                           	
  5097                           i1l2730:	
  5098  0374                     ;main.c: 286:                             }
  5099                           	movlw	low(01h)
  5100  0374  3001               	bcf	status, 5	;RP0=0, select bank0
  5101  0375  1283               	bcf	status, 6	;RP1=0, select bank0
  5102  0376  1303               	movwf	(??_ISR+0)+0
  5103  0377  00C9               	movf	(??_ISR+0)+0,w
  5104  0378  0849               	addwf	(ISR@i),f
  5105  0379  07DF               	
  5106                           i1l2732:	
  5107  037A                     	movlw	low(02h)
  5108  037A  3002               	subwf	(ISR@i),w
  5109  037B  025F               	skipc
  5110  037C  1C03               	goto	u246_21
  5111  037D  2B7F               	goto	u246_20
  5112  037E  2B80               u246_21:
  5113  037F                     	goto	i1l2728
  5114  037F  2B5F               u246_20:
  5115  0380                     	goto	i1l2734
  5116  0380  2B81               	
  5117                           i1l253:	
  5118  0381                     	line	287
  5119                           	
  5120                           i1l2734:	
  5121  0381                     ;main.c: 287:                             data_response_8byte[3] = address;
  5122                           	movf	(ISR@address),w
  5123  0381  085B               	movwf	(??_ISR+0)+0
  5124  0382  00C9               	movf	(??_ISR+0)+0,w
  5125  0383  0849               	movwf	0+(_data_response_8byte)+03h
  5126  0384  00E3               	line	288
  5127                           	
  5128                           i1l2736:	
  5129  0385                     ;main.c: 288:                             data_response_8byte[2] = (char) (address >> 8)
                                 ;
  5130                           	movf	(ISR@address+1),w
  5131  0385  085C               	movwf	(??_ISR+0)+0
  5132  0386  00C9               	movf	(??_ISR+0)+0,w
  5133  0387  0849               	movwf	0+(_data_response_8byte)+02h
  5134  0388  00E2               	line	289
  5135                           ;main.c: 289:                             for (i = 0; i < 2; i++) {
  5136                           	clrf	(ISR@i)
  5137  0389  01DF               	
  5138                           i1l2738:	
  5139  038A                     	movlw	low(02h)
  5140  038A  3002               	subwf	(ISR@i),w
  5141  038B  025F               	skipc
  5142  038C  1C03               	goto	u247_21
  5143  038D  2B8F               	goto	u247_20
  5144  038E  2B90               u247_21:
  5145  038F                     	goto	i1l2742
  5146  038F  2B92               u247_20:
  5147  0390                     	goto	i1l2748
  5148  0390  2BB3               	
  5149                           i1l2740:	
  5150  0391                     	goto	i1l2748
  5151  0391  2BB3               	
  5152                           i1l254:	
  5153  0392                     	line	290
  5154                           	
  5155                           i1l2742:	
  5156  0392                     ;main.c: 290:                                 data_response_8byte[4 + i] = EEPROM_Read(1
                                 004 + i);
  5157                           	movf	(ISR@i),w
  5158  0392  085F               	addlw	low(03ECh)
  5159  0393  3EEC               	movwf	(EEPROM_Read@address)
  5160  0394  00F0               	movlw	high(03ECh)
  5161  0395  3003               	skipnc
  5162  0396  1803               	movlw	(high(03ECh)+1)&0ffh
  5163  0397  3004               	movwf	((EEPROM_Read@address))+1
  5164  0398  00F1               	fcall	_EEPROM_Read
  5165  0399  160A  118A  277F  120A  118A  	bcf	status, 5	;RP0=0, select bank0
  5166  039E  1283               	bcf	status, 6	;RP1=0, select bank0
  5167  039F  1303               	movwf	(??_ISR+0)+0
  5168  03A0  00C9               	movf	(ISR@i),w
  5169  03A1  085F               	addlw	04h
  5170  03A2  3E04               	addlw	low(_data_response_8byte|((0x0)<<8))&0ffh
  5171  03A3  3E60               	movwf	fsr0
  5172  03A4  0084               	movf	(??_ISR+0)+0,w
  5173  03A5  0849               	bcf	status, 7	;select IRP bank0
  5174  03A6  1383               	movwf	indf
  5175  03A7  0080               	line	292
  5176                           	
  5177                           i1l2744:	
  5178  03A8                     ;main.c: 292:                             }
  5179                           	movlw	low(01h)
  5180  03A8  3001               	movwf	(??_ISR+0)+0
  5181  03A9  00C9               	movf	(??_ISR+0)+0,w
  5182  03AA  0849               	addwf	(ISR@i),f
  5183  03AB  07DF               	
  5184                           i1l2746:	
  5185  03AC                     	movlw	low(02h)
  5186  03AC  3002               	subwf	(ISR@i),w
  5187  03AD  025F               	skipc
  5188  03AE  1C03               	goto	u248_21
  5189  03AF  2BB1               	goto	u248_20
  5190  03B0  2BB2               u248_21:
  5191  03B1                     	goto	i1l2742
  5192  03B1  2B92               u248_20:
  5193  03B2                     	goto	i1l2748
  5194  03B2  2BB3               	
  5195                           i1l255:	
  5196  03B3                     	line	293
  5197                           	
  5198                           i1l2748:	
  5199  03B3                     ;main.c: 293:                             CONVERT_Data_6Byte(data_response_8byte, crc_co
                                 de_response);
  5200                           	movlw	(low(ISR@crc_code_response|((0x0)<<8)))&0ffh
  5201  03B3  305D               	movwf	(??_ISR+0)+0
  5202  03B4  00C9               	movf	(??_ISR+0)+0,w
  5203  03B5  0849               	movwf	(CONVERT_Data_6Byte@output_ref)
  5204  03B6  00FC               	movlw	(low(_data_response_8byte|((0x0)<<8)))&0ffh
  5205  03B7  3060               	fcall	_CONVERT_Data_6Byte
  5206  03B8  120A  158A  2323  120A  118A  	line	294
  5207                           	
  5208                           i1l2750:	
  5209  03BD                     ;main.c: 294:                             data_response_8byte[6] = crc_code_response[0];
                                 
  5210                           	bcf	status, 5	;RP0=0, select bank0
  5211  03BD  1283               	bcf	status, 6	;RP1=0, select bank0
  5212  03BE  1303               	movf	(ISR@crc_code_response),w
  5213  03BF  085D               	movwf	(??_ISR+0)+0
  5214  03C0  00C9               	movf	(??_ISR+0)+0,w
  5215  03C1  0849               	movwf	0+(_data_response_8byte)+06h
  5216  03C2  00E6               	line	295
  5217                           	
  5218                           i1l2752:	
  5219  03C3                     ;main.c: 295:                             data_response_8byte[7] = crc_code_response[1];
                                 
  5220                           	movf	0+(ISR@crc_code_response)+01h,w
  5221  03C3  085E               	movwf	(??_ISR+0)+0
  5222  03C4  00C9               	movf	(??_ISR+0)+0,w
  5223  03C5  0849               	movwf	0+(_data_response_8byte)+07h
  5224  03C6  00E7               	line	296
  5225                           	
  5226                           i1l2754:	
  5227  03C7                     ;main.c: 296:                             if (UART_TX_Empty())
  5228                           	fcall	_UART_TX_Empty
  5229  03C7  160A  118A  275A  120A  118A  	xorlw	0
  5230  03CC  3A00               	skipnz
  5231  03CD  1903               	goto	u249_21
  5232  03CE  2BD0               	goto	u249_20
  5233  03CF  2BD1               u249_21:
  5234  03D0                     	goto	i1l276
  5235  03D0  2DAF               u249_20:
  5236  03D1                     	line	297
  5237                           	
  5238                           i1l2756:	
  5239  03D1                     ;main.c: 297:                                 UART_Write_Text_Length(data_response_8byte
                                 , 8);
  5240                           	movlw	(low(_data_response_8byte|((0x0)<<8))&0ffh)
  5241  03D1  3060               	movwf	(UART_Write_Text_Length@str)
  5242  03D2  00F1               	movlw	(0x0)
  5243  03D3  3000               	movwf	(UART_Write_Text_Length@str+1)
  5244  03D4  00F2               	movlw	08h
  5245  03D5  3008               	movwf	(UART_Write_Text_Length@length)
  5246  03D6  00F3               	movlw	0
  5247  03D7  3000               	movwf	((UART_Write_Text_Length@length))+1
  5248  03D8  00F4               	fcall	_UART_Write_Text_Length
  5249  03D9  120A  118A  25BC  120A  118A  	goto	i1l276
  5250  03DE  2DAF               	
  5251                           i1l256:	
  5252  03DF                     	line	299
  5253                           ;main.c: 299:                             break;
  5254                           	goto	i1l276
  5255  03DF  2DAF               	line	300
  5256                           ;main.c: 300:                         case 0x1010:
  5257                           	
  5258                           i1l257:	
  5259  03E0                     	line	301
  5260                           	
  5261                           i1l2758:	
  5262  03E0                     ;main.c: 301:                             for (i = 0; i < 2; i++) {
  5263                           	bcf	status, 5	;RP0=0, select bank0
  5264  03E0  1283               	bcf	status, 6	;RP1=0, select bank0
  5265  03E1  1303               	clrf	(ISR@i)
  5266  03E2  01DF               	
  5267                           i1l2760:	
  5268  03E3                     	movlw	low(02h)
  5269  03E3  3002               	subwf	(ISR@i),w
  5270  03E4  025F               	skipc
  5271  03E5  1C03               	goto	u250_21
  5272  03E6  2BE8               	goto	u250_20
  5273  03E7  2BE9               u250_21:
  5274  03E8                     	goto	i1l2764
  5275  03E8  2BEB               u250_20:
  5276  03E9                     	goto	i1l2770
  5277  03E9  2C0D               	
  5278                           i1l2762:	
  5279  03EA                     	goto	i1l2770
  5280  03EA  2C0D               	
  5281                           i1l258:	
  5282  03EB                     	line	302
  5283                           	
  5284                           i1l2764:	
  5285  03EB                     ;main.c: 302:                                 EEPROM_Write(1010 + i, data[4 + i]);
  5286                           	movf	(ISR@i),w
  5287  03EB  085F               	addlw	low(03F2h)
  5288  03EC  3EF2               	movwf	(i1EEPROM_Write@address)
  5289  03ED  00F0               	movlw	high(03F2h)
  5290  03EE  3003               	skipnc
  5291  03EF  1803               	movlw	(high(03F2h)+1)&0ffh
  5292  03F0  3004               	movwf	((i1EEPROM_Write@address))+1
  5293  03F1  00F1               	movf	(ISR@i),w
  5294  03F2  085F               	addlw	04h
  5295  03F3  3E04               	addlw	low(ISR@data|((0x0)<<8))&0ffh
  5296  03F4  3E51               	movwf	fsr0
  5297  03F5  0084               	bcf	status, 7	;select IRP bank0
  5298  03F6  1383               	movf	indf,w
  5299  03F7  0800               	movwf	(??_ISR+0)+0
  5300  03F8  00C9               	movf	(??_ISR+0)+0,w
  5301  03F9  0849               	movwf	(i1EEPROM_Write@data)
  5302  03FA  00F2               	fcall	i1_EEPROM_Write
  5303  03FB  120A  158A  2220  120A  118A  	line	303
  5304                           	
  5305                           i1l2766:	
  5306  0400                     ;main.c: 303:                             }
  5307                           	movlw	low(01h)
  5308  0400  3001               	bcf	status, 5	;RP0=0, select bank0
  5309  0401  1283               	bcf	status, 6	;RP1=0, select bank0
  5310  0402  1303               	movwf	(??_ISR+0)+0
  5311  0403  00C9               	movf	(??_ISR+0)+0,w
  5312  0404  0849               	addwf	(ISR@i),f
  5313  0405  07DF               	
  5314                           i1l2768:	
  5315  0406                     	movlw	low(02h)
  5316  0406  3002               	subwf	(ISR@i),w
  5317  0407  025F               	skipc
  5318  0408  1C03               	goto	u251_21
  5319  0409  2C0B               	goto	u251_20
  5320  040A  2C0C               u251_21:
  5321  040B                     	goto	i1l2764
  5322  040B  2BEB               u251_20:
  5323  040C                     	goto	i1l2770
  5324  040C  2C0D               	
  5325                           i1l259:	
  5326  040D                     	line	304
  5327                           	
  5328                           i1l2770:	
  5329  040D                     ;main.c: 304:                             data_response_8byte[3] = address;
  5330                           	movf	(ISR@address),w
  5331  040D  085B               	movwf	(??_ISR+0)+0
  5332  040E  00C9               	movf	(??_ISR+0)+0,w
  5333  040F  0849               	movwf	0+(_data_response_8byte)+03h
  5334  0410  00E3               	line	305
  5335                           	
  5336                           i1l2772:	
  5337  0411                     ;main.c: 305:                             data_response_8byte[2] = (char) (address >> 8)
                                 ;
  5338                           	movf	(ISR@address+1),w
  5339  0411  085C               	movwf	(??_ISR+0)+0
  5340  0412  00C9               	movf	(??_ISR+0)+0,w
  5341  0413  0849               	movwf	0+(_data_response_8byte)+02h
  5342  0414  00E2               	line	306
  5343                           ;main.c: 306:                             for (i = 0; i < 2; i++) {
  5344                           	clrf	(ISR@i)
  5345  0415  01DF               	
  5346                           i1l2774:	
  5347  0416                     	movlw	low(02h)
  5348  0416  3002               	subwf	(ISR@i),w
  5349  0417  025F               	skipc
  5350  0418  1C03               	goto	u252_21
  5351  0419  2C1B               	goto	u252_20
  5352  041A  2C1C               u252_21:
  5353  041B                     	goto	i1l2778
  5354  041B  2C1E               u252_20:
  5355  041C                     	goto	i1l2784
  5356  041C  2C3F               	
  5357                           i1l2776:	
  5358  041D                     	goto	i1l2784
  5359  041D  2C3F               	
  5360                           i1l260:	
  5361  041E                     	line	307
  5362                           	
  5363                           i1l2778:	
  5364  041E                     ;main.c: 307:                                 data_response_8byte[4 + i] = EEPROM_Read(1
                                 010 + i);
  5365                           	movf	(ISR@i),w
  5366  041E  085F               	addlw	low(03F2h)
  5367  041F  3EF2               	movwf	(EEPROM_Read@address)
  5368  0420  00F0               	movlw	high(03F2h)
  5369  0421  3003               	skipnc
  5370  0422  1803               	movlw	(high(03F2h)+1)&0ffh
  5371  0423  3004               	movwf	((EEPROM_Read@address))+1
  5372  0424  00F1               	fcall	_EEPROM_Read
  5373  0425  160A  118A  277F  120A  118A  	bcf	status, 5	;RP0=0, select bank0
  5374  042A  1283               	bcf	status, 6	;RP1=0, select bank0
  5375  042B  1303               	movwf	(??_ISR+0)+0
  5376  042C  00C9               	movf	(ISR@i),w
  5377  042D  085F               	addlw	04h
  5378  042E  3E04               	addlw	low(_data_response_8byte|((0x0)<<8))&0ffh
  5379  042F  3E60               	movwf	fsr0
  5380  0430  0084               	movf	(??_ISR+0)+0,w
  5381  0431  0849               	bcf	status, 7	;select IRP bank0
  5382  0432  1383               	movwf	indf
  5383  0433  0080               	line	309
  5384                           	
  5385                           i1l2780:	
  5386  0434                     ;main.c: 309:                             }
  5387                           	movlw	low(01h)
  5388  0434  3001               	movwf	(??_ISR+0)+0
  5389  0435  00C9               	movf	(??_ISR+0)+0,w
  5390  0436  0849               	addwf	(ISR@i),f
  5391  0437  07DF               	
  5392                           i1l2782:	
  5393  0438                     	movlw	low(02h)
  5394  0438  3002               	subwf	(ISR@i),w
  5395  0439  025F               	skipc
  5396  043A  1C03               	goto	u253_21
  5397  043B  2C3D               	goto	u253_20
  5398  043C  2C3E               u253_21:
  5399  043D                     	goto	i1l2778
  5400  043D  2C1E               u253_20:
  5401  043E                     	goto	i1l2784
  5402  043E  2C3F               	
  5403                           i1l261:	
  5404  043F                     	line	310
  5405                           	
  5406                           i1l2784:	
  5407  043F                     ;main.c: 310:                             CONVERT_Data_6Byte(data_response_8byte, crc_co
                                 de_response);
  5408                           	movlw	(low(ISR@crc_code_response|((0x0)<<8)))&0ffh
  5409  043F  305D               	movwf	(??_ISR+0)+0
  5410  0440  00C9               	movf	(??_ISR+0)+0,w
  5411  0441  0849               	movwf	(CONVERT_Data_6Byte@output_ref)
  5412  0442  00FC               	movlw	(low(_data_response_8byte|((0x0)<<8)))&0ffh
  5413  0443  3060               	fcall	_CONVERT_Data_6Byte
  5414  0444  120A  158A  2323  120A  118A  	line	311
  5415                           	
  5416                           i1l2786:	
  5417  0449                     ;main.c: 311:                             data_response_8byte[6] = crc_code_response[0];
                                 
  5418                           	bcf	status, 5	;RP0=0, select bank0
  5419  0449  1283               	bcf	status, 6	;RP1=0, select bank0
  5420  044A  1303               	movf	(ISR@crc_code_response),w
  5421  044B  085D               	movwf	(??_ISR+0)+0
  5422  044C  00C9               	movf	(??_ISR+0)+0,w
  5423  044D  0849               	movwf	0+(_data_response_8byte)+06h
  5424  044E  00E6               	line	312
  5425                           	
  5426                           i1l2788:	
  5427  044F                     ;main.c: 312:                             data_response_8byte[7] = crc_code_response[1];
                                 
  5428                           	movf	0+(ISR@crc_code_response)+01h,w
  5429  044F  085E               	movwf	(??_ISR+0)+0
  5430  0450  00C9               	movf	(??_ISR+0)+0,w
  5431  0451  0849               	movwf	0+(_data_response_8byte)+07h
  5432  0452  00E7               	line	313
  5433                           	
  5434                           i1l2790:	
  5435  0453                     ;main.c: 313:                             if (UART_TX_Empty())
  5436                           	fcall	_UART_TX_Empty
  5437  0453  160A  118A  275A  120A  118A  	xorlw	0
  5438  0458  3A00               	skipnz
  5439  0459  1903               	goto	u254_21
  5440  045A  2C5C               	goto	u254_20
  5441  045B  2C5D               u254_21:
  5442  045C                     	goto	i1l276
  5443  045C  2DAF               u254_20:
  5444  045D                     	line	314
  5445                           	
  5446                           i1l2792:	
  5447  045D                     ;main.c: 314:                                 UART_Write_Text_Length(data_response_8byte
                                 , 8);
  5448                           	movlw	(low(_data_response_8byte|((0x0)<<8))&0ffh)
  5449  045D  3060               	movwf	(UART_Write_Text_Length@str)
  5450  045E  00F1               	movlw	(0x0)
  5451  045F  3000               	movwf	(UART_Write_Text_Length@str+1)
  5452  0460  00F2               	movlw	08h
  5453  0461  3008               	movwf	(UART_Write_Text_Length@length)
  5454  0462  00F3               	movlw	0
  5455  0463  3000               	movwf	((UART_Write_Text_Length@length))+1
  5456  0464  00F4               	fcall	_UART_Write_Text_Length
  5457  0465  120A  118A  25BC  120A  118A  	goto	i1l276
  5458  046A  2DAF               	
  5459                           i1l262:	
  5460  046B                     	line	316
  5461                           ;main.c: 316:                             break;
  5462                           	goto	i1l276
  5463  046B  2DAF               	line	317
  5464                           ;main.c: 317:                         case 0x2002:
  5465                           	
  5466                           i1l263:	
  5467  046C                     	line	318
  5468                           	
  5469                           i1l2794:	
  5470  046C                     ;main.c: 318:                             for (i = 0; i < 2; i++) {
  5471                           	bcf	status, 5	;RP0=0, select bank0
  5472  046C  1283               	bcf	status, 6	;RP1=0, select bank0
  5473  046D  1303               	clrf	(ISR@i)
  5474  046E  01DF               	
  5475                           i1l2796:	
  5476  046F                     	movlw	low(02h)
  5477  046F  3002               	subwf	(ISR@i),w
  5478  0470  025F               	skipc
  5479  0471  1C03               	goto	u255_21
  5480  0472  2C74               	goto	u255_20
  5481  0473  2C75               u255_21:
  5482  0474                     	goto	i1l2800
  5483  0474  2C77               u255_20:
  5484  0475                     	goto	i1l2806
  5485  0475  2C99               	
  5486                           i1l2798:	
  5487  0476                     	goto	i1l2806
  5488  0476  2C99               	
  5489                           i1l264:	
  5490  0477                     	line	319
  5491                           	
  5492                           i1l2800:	
  5493  0477                     ;main.c: 319:                                 EEPROM_Write(2002 + i, data[4 + i]);
  5494                           	movf	(ISR@i),w
  5495  0477  085F               	addlw	low(07D2h)
  5496  0478  3ED2               	movwf	(i1EEPROM_Write@address)
  5497  0479  00F0               	movlw	high(07D2h)
  5498  047A  3007               	skipnc
  5499  047B  1803               	movlw	(high(07D2h)+1)&0ffh
  5500  047C  3008               	movwf	((i1EEPROM_Write@address))+1
  5501  047D  00F1               	movf	(ISR@i),w
  5502  047E  085F               	addlw	04h
  5503  047F  3E04               	addlw	low(ISR@data|((0x0)<<8))&0ffh
  5504  0480  3E51               	movwf	fsr0
  5505  0481  0084               	bcf	status, 7	;select IRP bank0
  5506  0482  1383               	movf	indf,w
  5507  0483  0800               	movwf	(??_ISR+0)+0
  5508  0484  00C9               	movf	(??_ISR+0)+0,w
  5509  0485  0849               	movwf	(i1EEPROM_Write@data)
  5510  0486  00F2               	fcall	i1_EEPROM_Write
  5511  0487  120A  158A  2220  120A  118A  	line	320
  5512                           	
  5513                           i1l2802:	
  5514  048C                     ;main.c: 320:                             }
  5515                           	movlw	low(01h)
  5516  048C  3001               	bcf	status, 5	;RP0=0, select bank0
  5517  048D  1283               	bcf	status, 6	;RP1=0, select bank0
  5518  048E  1303               	movwf	(??_ISR+0)+0
  5519  048F  00C9               	movf	(??_ISR+0)+0,w
  5520  0490  0849               	addwf	(ISR@i),f
  5521  0491  07DF               	
  5522                           i1l2804:	
  5523  0492                     	movlw	low(02h)
  5524  0492  3002               	subwf	(ISR@i),w
  5525  0493  025F               	skipc
  5526  0494  1C03               	goto	u256_21
  5527  0495  2C97               	goto	u256_20
  5528  0496  2C98               u256_21:
  5529  0497                     	goto	i1l2800
  5530  0497  2C77               u256_20:
  5531  0498                     	goto	i1l2806
  5532  0498  2C99               	
  5533                           i1l265:	
  5534  0499                     	line	321
  5535                           	
  5536                           i1l2806:	
  5537  0499                     ;main.c: 321:                             data_response_8byte[0] = data[5];
  5538                           	movf	0+(ISR@data)+05h,w
  5539  0499  0856               	movwf	(??_ISR+0)+0
  5540  049A  00C9               	movf	(??_ISR+0)+0,w
  5541  049B  0849               	movwf	(_data_response_8byte)
  5542  049C  00E0               	line	322
  5543                           ;main.c: 322:                             data_response_8byte[3] = address;
  5544                           	movf	(ISR@address),w
  5545  049D  085B               	movwf	(??_ISR+0)+0
  5546  049E  00C9               	movf	(??_ISR+0)+0,w
  5547  049F  0849               	movwf	0+(_data_response_8byte)+03h
  5548  04A0  00E3               	line	323
  5549                           	
  5550                           i1l2808:	
  5551  04A1                     ;main.c: 323:                             data_response_8byte[2] = (char) (address >> 8)
                                 ;
  5552                           	movf	(ISR@address+1),w
  5553  04A1  085C               	movwf	(??_ISR+0)+0
  5554  04A2  00C9               	movf	(??_ISR+0)+0,w
  5555  04A3  0849               	movwf	0+(_data_response_8byte)+02h
  5556  04A4  00E2               	line	324
  5557                           ;main.c: 324:                             for (i = 0; i < 2; i++) {
  5558                           	clrf	(ISR@i)
  5559  04A5  01DF               	
  5560                           i1l2810:	
  5561  04A6                     	movlw	low(02h)
  5562  04A6  3002               	subwf	(ISR@i),w
  5563  04A7  025F               	skipc
  5564  04A8  1C03               	goto	u257_21
  5565  04A9  2CAB               	goto	u257_20
  5566  04AA  2CAC               u257_21:
  5567  04AB                     	goto	i1l2814
  5568  04AB  2CAE               u257_20:
  5569  04AC                     	goto	i1l2820
  5570  04AC  2CCF               	
  5571                           i1l2812:	
  5572  04AD                     	goto	i1l2820
  5573  04AD  2CCF               	
  5574                           i1l266:	
  5575  04AE                     	line	325
  5576                           	
  5577                           i1l2814:	
  5578  04AE                     ;main.c: 325:                                 data_response_8byte[4 + i] = EEPROM_Read(2
                                 002 + i);
  5579                           	movf	(ISR@i),w
  5580  04AE  085F               	addlw	low(07D2h)
  5581  04AF  3ED2               	movwf	(EEPROM_Read@address)
  5582  04B0  00F0               	movlw	high(07D2h)
  5583  04B1  3007               	skipnc
  5584  04B2  1803               	movlw	(high(07D2h)+1)&0ffh
  5585  04B3  3008               	movwf	((EEPROM_Read@address))+1
  5586  04B4  00F1               	fcall	_EEPROM_Read
  5587  04B5  160A  118A  277F  120A  118A  	bcf	status, 5	;RP0=0, select bank0
  5588  04BA  1283               	bcf	status, 6	;RP1=0, select bank0
  5589  04BB  1303               	movwf	(??_ISR+0)+0
  5590  04BC  00C9               	movf	(ISR@i),w
  5591  04BD  085F               	addlw	04h
  5592  04BE  3E04               	addlw	low(_data_response_8byte|((0x0)<<8))&0ffh
  5593  04BF  3E60               	movwf	fsr0
  5594  04C0  0084               	movf	(??_ISR+0)+0,w
  5595  04C1  0849               	bcf	status, 7	;select IRP bank0
  5596  04C2  1383               	movwf	indf
  5597  04C3  0080               	line	327
  5598                           	
  5599                           i1l2816:	
  5600  04C4                     ;main.c: 327:                             }
  5601                           	movlw	low(01h)
  5602  04C4  3001               	movwf	(??_ISR+0)+0
  5603  04C5  00C9               	movf	(??_ISR+0)+0,w
  5604  04C6  0849               	addwf	(ISR@i),f
  5605  04C7  07DF               	
  5606                           i1l2818:	
  5607  04C8                     	movlw	low(02h)
  5608  04C8  3002               	subwf	(ISR@i),w
  5609  04C9  025F               	skipc
  5610  04CA  1C03               	goto	u258_21
  5611  04CB  2CCD               	goto	u258_20
  5612  04CC  2CCE               u258_21:
  5613  04CD                     	goto	i1l2814
  5614  04CD  2CAE               u258_20:
  5615  04CE                     	goto	i1l2820
  5616  04CE  2CCF               	
  5617                           i1l267:	
  5618  04CF                     	line	328
  5619                           	
  5620                           i1l2820:	
  5621  04CF                     ;main.c: 328:                             CONVERT_Data_6Byte(data_response_8byte, crc_co
                                 de_response);
  5622                           	movlw	(low(ISR@crc_code_response|((0x0)<<8)))&0ffh
  5623  04CF  305D               	movwf	(??_ISR+0)+0
  5624  04D0  00C9               	movf	(??_ISR+0)+0,w
  5625  04D1  0849               	movwf	(CONVERT_Data_6Byte@output_ref)
  5626  04D2  00FC               	movlw	(low(_data_response_8byte|((0x0)<<8)))&0ffh
  5627  04D3  3060               	fcall	_CONVERT_Data_6Byte
  5628  04D4  120A  158A  2323  120A  118A  	line	329
  5629                           	
  5630                           i1l2822:	
  5631  04D9                     ;main.c: 329:                             data_response_8byte[6] = crc_code_response[0];
                                 
  5632                           	bcf	status, 5	;RP0=0, select bank0
  5633  04D9  1283               	bcf	status, 6	;RP1=0, select bank0
  5634  04DA  1303               	movf	(ISR@crc_code_response),w
  5635  04DB  085D               	movwf	(??_ISR+0)+0
  5636  04DC  00C9               	movf	(??_ISR+0)+0,w
  5637  04DD  0849               	movwf	0+(_data_response_8byte)+06h
  5638  04DE  00E6               	line	330
  5639                           	
  5640                           i1l2824:	
  5641  04DF                     ;main.c: 330:                             data_response_8byte[7] = crc_code_response[1];
                                 
  5642                           	movf	0+(ISR@crc_code_response)+01h,w
  5643  04DF  085E               	movwf	(??_ISR+0)+0
  5644  04E0  00C9               	movf	(??_ISR+0)+0,w
  5645  04E1  0849               	movwf	0+(_data_response_8byte)+07h
  5646  04E2  00E7               	line	331
  5647                           	
  5648                           i1l2826:	
  5649  04E3                     ;main.c: 331:                             if (UART_TX_Empty())
  5650                           	fcall	_UART_TX_Empty
  5651  04E3  160A  118A  275A  120A  118A  	xorlw	0
  5652  04E8  3A00               	skipnz
  5653  04E9  1903               	goto	u259_21
  5654  04EA  2CEC               	goto	u259_20
  5655  04EB  2CED               u259_21:
  5656  04EC                     	goto	i1l2830
  5657  04EC  2CFB               u259_20:
  5658  04ED                     	line	332
  5659                           	
  5660                           i1l2828:	
  5661  04ED                     ;main.c: 332:                                 UART_Write_Text_Length(data_response_8byte
                                 , 8);
  5662                           	movlw	(low(_data_response_8byte|((0x0)<<8))&0ffh)
  5663  04ED  3060               	movwf	(UART_Write_Text_Length@str)
  5664  04EE  00F1               	movlw	(0x0)
  5665  04EF  3000               	movwf	(UART_Write_Text_Length@str+1)
  5666  04F0  00F2               	movlw	08h
  5667  04F1  3008               	movwf	(UART_Write_Text_Length@length)
  5668  04F2  00F3               	movlw	0
  5669  04F3  3000               	movwf	((UART_Write_Text_Length@length))+1
  5670  04F4  00F4               	fcall	_UART_Write_Text_Length
  5671  04F5  120A  118A  25BC  120A  118A  	goto	i1l2830
  5672  04FA  2CFB               	
  5673                           i1l268:	
  5674  04FB                     	line	333
  5675                           	
  5676                           i1l2830:	
  5677  04FB                     ;main.c: 333:                             data_response_8byte[0] = 0x06;
  5678                           	movlw	low(06h)
  5679  04FB  3006               	bcf	status, 5	;RP0=0, select bank0
  5680  04FC  1283               	bcf	status, 6	;RP1=0, select bank0
  5681  04FD  1303               	movwf	(??_ISR+0)+0
  5682  04FE  00C9               	movf	(??_ISR+0)+0,w
  5683  04FF  0849               	movwf	(_data_response_8byte)
  5684  0500  00E0               	line	335
  5685                           ;main.c: 335:                             break;
  5686                           	goto	i1l276
  5687  0501  2DAF               	line	336
  5688                           ;main.c: 336:                         case 0x2020:
  5689                           	
  5690                           i1l269:	
  5691  0502                     	line	337
  5692                           	
  5693                           i1l2832:	
  5694  0502                     ;main.c: 337:                             for (i = 0; i < 2; i++) {
  5695                           	clrf	(ISR@i)
  5696  0502  01DF               	
  5697                           i1l2834:	
  5698  0503                     	movlw	low(02h)
  5699  0503  3002               	subwf	(ISR@i),w
  5700  0504  025F               	skipc
  5701  0505  1C03               	goto	u260_21
  5702  0506  2D08               	goto	u260_20
  5703  0507  2D09               u260_21:
  5704  0508                     	goto	i1l2838
  5705  0508  2D0B               u260_20:
  5706  0509                     	goto	i1l2844
  5707  0509  2D2D               	
  5708                           i1l2836:	
  5709  050A                     	goto	i1l2844
  5710  050A  2D2D               	
  5711                           i1l270:	
  5712  050B                     	line	338
  5713                           	
  5714                           i1l2838:	
  5715  050B                     ;main.c: 338:                                 EEPROM_Write(2020 + i, data[4 + i]);
  5716                           	movf	(ISR@i),w
  5717  050B  085F               	addlw	low(07E4h)
  5718  050C  3EE4               	movwf	(i1EEPROM_Write@address)
  5719  050D  00F0               	movlw	high(07E4h)
  5720  050E  3007               	skipnc
  5721  050F  1803               	movlw	(high(07E4h)+1)&0ffh
  5722  0510  3008               	movwf	((i1EEPROM_Write@address))+1
  5723  0511  00F1               	movf	(ISR@i),w
  5724  0512  085F               	addlw	04h
  5725  0513  3E04               	addlw	low(ISR@data|((0x0)<<8))&0ffh
  5726  0514  3E51               	movwf	fsr0
  5727  0515  0084               	bcf	status, 7	;select IRP bank0
  5728  0516  1383               	movf	indf,w
  5729  0517  0800               	movwf	(??_ISR+0)+0
  5730  0518  00C9               	movf	(??_ISR+0)+0,w
  5731  0519  0849               	movwf	(i1EEPROM_Write@data)
  5732  051A  00F2               	fcall	i1_EEPROM_Write
  5733  051B  120A  158A  2220  120A  118A  	line	339
  5734                           	
  5735                           i1l2840:	
  5736  0520                     ;main.c: 339:                             }
  5737                           	movlw	low(01h)
  5738  0520  3001               	bcf	status, 5	;RP0=0, select bank0
  5739  0521  1283               	bcf	status, 6	;RP1=0, select bank0
  5740  0522  1303               	movwf	(??_ISR+0)+0
  5741  0523  00C9               	movf	(??_ISR+0)+0,w
  5742  0524  0849               	addwf	(ISR@i),f
  5743  0525  07DF               	
  5744                           i1l2842:	
  5745  0526                     	movlw	low(02h)
  5746  0526  3002               	subwf	(ISR@i),w
  5747  0527  025F               	skipc
  5748  0528  1C03               	goto	u261_21
  5749  0529  2D2B               	goto	u261_20
  5750  052A  2D2C               u261_21:
  5751  052B                     	goto	i1l2838
  5752  052B  2D0B               u261_20:
  5753  052C                     	goto	i1l2844
  5754  052C  2D2D               	
  5755                           i1l271:	
  5756  052D                     	line	341
  5757                           	
  5758                           i1l2844:	
  5759  052D                     ;main.c: 341:                             data_response_8byte[3] = address;
  5760                           	movf	(ISR@address),w
  5761  052D  085B               	movwf	(??_ISR+0)+0
  5762  052E  00C9               	movf	(??_ISR+0)+0,w
  5763  052F  0849               	movwf	0+(_data_response_8byte)+03h
  5764  0530  00E3               	line	342
  5765                           	
  5766                           i1l2846:	
  5767  0531                     ;main.c: 342:                             data_response_8byte[2] = (char) (address >> 8)
                                 ;
  5768                           	movf	(ISR@address+1),w
  5769  0531  085C               	movwf	(??_ISR+0)+0
  5770  0532  00C9               	movf	(??_ISR+0)+0,w
  5771  0533  0849               	movwf	0+(_data_response_8byte)+02h
  5772  0534  00E2               	line	343
  5773                           ;main.c: 343:                             for (i = 0; i < 2; i++) {
  5774                           	clrf	(ISR@i)
  5775  0535  01DF               	
  5776                           i1l2848:	
  5777  0536                     	movlw	low(02h)
  5778  0536  3002               	subwf	(ISR@i),w
  5779  0537  025F               	skipc
  5780  0538  1C03               	goto	u262_21
  5781  0539  2D3B               	goto	u262_20
  5782  053A  2D3C               u262_21:
  5783  053B                     	goto	i1l2852
  5784  053B  2D3E               u262_20:
  5785  053C                     	goto	i1l2858
  5786  053C  2D5F               	
  5787                           i1l2850:	
  5788  053D                     	goto	i1l2858
  5789  053D  2D5F               	
  5790                           i1l272:	
  5791  053E                     	line	344
  5792                           	
  5793                           i1l2852:	
  5794  053E                     ;main.c: 344:                                 data_response_8byte[4 + i] = EEPROM_Read(2
                                 020 + i);
  5795                           	movf	(ISR@i),w
  5796  053E  085F               	addlw	low(07E4h)
  5797  053F  3EE4               	movwf	(EEPROM_Read@address)
  5798  0540  00F0               	movlw	high(07E4h)
  5799  0541  3007               	skipnc
  5800  0542  1803               	movlw	(high(07E4h)+1)&0ffh
  5801  0543  3008               	movwf	((EEPROM_Read@address))+1
  5802  0544  00F1               	fcall	_EEPROM_Read
  5803  0545  160A  118A  277F  120A  118A  	bcf	status, 5	;RP0=0, select bank0
  5804  054A  1283               	bcf	status, 6	;RP1=0, select bank0
  5805  054B  1303               	movwf	(??_ISR+0)+0
  5806  054C  00C9               	movf	(ISR@i),w
  5807  054D  085F               	addlw	04h
  5808  054E  3E04               	addlw	low(_data_response_8byte|((0x0)<<8))&0ffh
  5809  054F  3E60               	movwf	fsr0
  5810  0550  0084               	movf	(??_ISR+0)+0,w
  5811  0551  0849               	bcf	status, 7	;select IRP bank0
  5812  0552  1383               	movwf	indf
  5813  0553  0080               	line	346
  5814                           	
  5815                           i1l2854:	
  5816  0554                     ;main.c: 346:                             }
  5817                           	movlw	low(01h)
  5818  0554  3001               	movwf	(??_ISR+0)+0
  5819  0555  00C9               	movf	(??_ISR+0)+0,w
  5820  0556  0849               	addwf	(ISR@i),f
  5821  0557  07DF               	
  5822                           i1l2856:	
  5823  0558                     	movlw	low(02h)
  5824  0558  3002               	subwf	(ISR@i),w
  5825  0559  025F               	skipc
  5826  055A  1C03               	goto	u263_21
  5827  055B  2D5D               	goto	u263_20
  5828  055C  2D5E               u263_21:
  5829  055D                     	goto	i1l2852
  5830  055D  2D3E               u263_20:
  5831  055E                     	goto	i1l2858
  5832  055E  2D5F               	
  5833                           i1l273:	
  5834  055F                     	line	347
  5835                           	
  5836                           i1l2858:	
  5837  055F                     ;main.c: 347:                             CONVERT_Data_6Byte(data_response_8byte, crc_co
                                 de_response);
  5838                           	movlw	(low(ISR@crc_code_response|((0x0)<<8)))&0ffh
  5839  055F  305D               	movwf	(??_ISR+0)+0
  5840  0560  00C9               	movf	(??_ISR+0)+0,w
  5841  0561  0849               	movwf	(CONVERT_Data_6Byte@output_ref)
  5842  0562  00FC               	movlw	(low(_data_response_8byte|((0x0)<<8)))&0ffh
  5843  0563  3060               	fcall	_CONVERT_Data_6Byte
  5844  0564  120A  158A  2323  120A  118A  	line	348
  5845                           	
  5846                           i1l2860:	
  5847  0569                     ;main.c: 348:                             data_response_8byte[6] = crc_code_response[0];
                                 
  5848                           	bcf	status, 5	;RP0=0, select bank0
  5849  0569  1283               	bcf	status, 6	;RP1=0, select bank0
  5850  056A  1303               	movf	(ISR@crc_code_response),w
  5851  056B  085D               	movwf	(??_ISR+0)+0
  5852  056C  00C9               	movf	(??_ISR+0)+0,w
  5853  056D  0849               	movwf	0+(_data_response_8byte)+06h
  5854  056E  00E6               	line	349
  5855                           	
  5856                           i1l2862:	
  5857  056F                     ;main.c: 349:                             data_response_8byte[7] = crc_code_response[1];
                                 
  5858                           	movf	0+(ISR@crc_code_response)+01h,w
  5859  056F  085E               	movwf	(??_ISR+0)+0
  5860  0570  00C9               	movf	(??_ISR+0)+0,w
  5861  0571  0849               	movwf	0+(_data_response_8byte)+07h
  5862  0572  00E7               	line	350
  5863                           	
  5864                           i1l2864:	
  5865  0573                     ;main.c: 350:                             if (UART_TX_Empty())
  5866                           	fcall	_UART_TX_Empty
  5867  0573  160A  118A  275A  120A  118A  	xorlw	0
  5868  0578  3A00               	skipnz
  5869  0579  1903               	goto	u264_21
  5870  057A  2D7C               	goto	u264_20
  5871  057B  2D7D               u264_21:
  5872  057C                     	goto	i1l276
  5873  057C  2DAF               u264_20:
  5874  057D                     	line	351
  5875                           	
  5876                           i1l2866:	
  5877  057D                     ;main.c: 351:                                 UART_Write_Text_Length(data_response_8byte
                                 , 8);
  5878                           	movlw	(low(_data_response_8byte|((0x0)<<8))&0ffh)
  5879  057D  3060               	movwf	(UART_Write_Text_Length@str)
  5880  057E  00F1               	movlw	(0x0)
  5881  057F  3000               	movwf	(UART_Write_Text_Length@str+1)
  5882  0580  00F2               	movlw	08h
  5883  0581  3008               	movwf	(UART_Write_Text_Length@length)
  5884  0582  00F3               	movlw	0
  5885  0583  3000               	movwf	((UART_Write_Text_Length@length))+1
  5886  0584  00F4               	fcall	_UART_Write_Text_Length
  5887  0585  120A  118A  25BC  120A  118A  	goto	i1l276
  5888  058A  2DAF               	
  5889                           i1l274:	
  5890  058B                     	line	352
  5891                           ;main.c: 352:                             break;
  5892                           	goto	i1l276
  5893  058B  2DAF               	line	353
  5894                           ;main.c: 353:                         default:
  5895                           	
  5896                           i1l275:	
  5897  058C                     	line	354
  5898                           ;main.c: 354:                             break;
  5899                           	goto	i1l276
  5900  058C  2DAF               	line	355
  5901                           	
  5902                           i1l2868:	
  5903  058D                     ;main.c: 355:                     }
  5904                           	goto	i1l276
  5905  058D  2DAF               	
  5906                           i1l243:	
  5907  058E                     	
  5908                           i1l2870:	
  5909  058E                     	; Switch on 2 bytes has been partitioned into a top level switch of size 1, and 2 sub-s
                                 witches
  5910                           ; Switch size 1, requested type "space"
  5911                           ; Number of cases is 2, Range of values is 16 to 32
  5912                           ; switch strategies available:
  5913                           ; Name         Instructions Cycles
  5914                           ; simple_byte            7     4 (average)
  5915                           ; direct_byte           62    11 (fixed)
  5916                           ; jumptable            263     9 (fixed)
  5917                           ;	Chosen strategy is simple_byte
  5918                           
  5919                           	bcf	status, 5	;RP0=0, select bank0
  5920  058E  1283               	bcf	status, 6	;RP1=0, select bank0
  5921  058F  1303               	movf (ISR@address+1),w
  5922  0590  085C               	opt asmopt_push
  5923                           	opt asmopt_off
  5924                           	xorlw	16^0	; case 16
  5925  0591  3A10               	skipnz
  5926  0592  1903               	goto	i1l2998
  5927  0593  2D98               	xorlw	32^16	; case 32
  5928  0594  3A30               	skipnz
  5929  0595  1903               	goto	i1l3000
  5930  0596  2DA3               	goto	i1l276
  5931  0597  2DAF               	opt asmopt_pop
  5932                           	
  5933                           i1l2998:	
  5934  0598                     ; Switch size 1, requested type "space"
  5935                           ; Number of cases is 3, Range of values is 0 to 16
  5936                           ; switch strategies available:
  5937                           ; Name         Instructions Cycles
  5938                           ; simple_byte           10     6 (average)
  5939                           ; direct_byte           59     8 (fixed)
  5940                           ; jumptable            260     6 (fixed)
  5941                           ;	Chosen strategy is simple_byte
  5942                           
  5943                           	movf (ISR@address),w
  5944  0598  085B               	opt asmopt_push
  5945                           	opt asmopt_off
  5946                           	xorlw	0^0	; case 0
  5947  0599  3A00               	skipnz
  5948  059A  1903               	goto	i1l2686
  5949  059B  2ACA               	xorlw	4^0	; case 4
  5950  059C  3A04               	skipnz
  5951  059D  1903               	goto	i1l2722
  5952  059E  2B54               	xorlw	16^4	; case 16
  5953  059F  3A14               	skipnz
  5954  05A0  1903               	goto	i1l2758
  5955  05A1  2BE0               	goto	i1l276
  5956  05A2  2DAF               	opt asmopt_pop
  5957                           	
  5958                           i1l3000:	
  5959  05A3                     ; Switch size 1, requested type "space"
  5960                           ; Number of cases is 2, Range of values is 2 to 32
  5961                           ; switch strategies available:
  5962                           ; Name         Instructions Cycles
  5963                           ; simple_byte            7     4 (average)
  5964                           ; direct_byte          104    11 (fixed)
  5965                           ; jumptable            263     9 (fixed)
  5966                           ;	Chosen strategy is simple_byte
  5967                           
  5968                           	movf (ISR@address),w
  5969  05A3  085B               	opt asmopt_push
  5970                           	opt asmopt_off
  5971                           	xorlw	2^0	; case 2
  5972  05A4  3A02               	skipnz
  5973  05A5  1903               	goto	i1l2794
  5974  05A6  2C6C               	xorlw	32^2	; case 32
  5975  05A7  3A22               	skipnz
  5976  05A8  1903               	goto	i1l2832
  5977  05A9  2D02               	goto	i1l276
  5978  05AA  2DAF               	opt asmopt_pop
  5979                           
  5980                           	
  5981                           i1l250:	
  5982  05AB                     	goto	i1l276
  5983  05AB  2DAF               	line	356
  5984                           ;main.c: 356:                 }
  5985                           	
  5986                           i1l242:	
  5987  05AC                     	goto	i1l276
  5988  05AC  2DAF               	line	358
  5989                           ;main.c: 358:             }
  5990                           	
  5991                           i1l217:	
  5992  05AD                     	goto	i1l276
  5993  05AD  2DAF               	line	359
  5994                           ;main.c: 359:         }
  5995                           	
  5996                           i1l216:	
  5997  05AE                     	goto	i1l276
  5998  05AE  2DAF               	line	360
  5999                           ;main.c: 360:     }
  6000                           	
  6001                           i1l215:	
  6002  05AF                     	line	361
  6003                           	
  6004                           i1l276:	
  6005  05AF                     	bcf	status, 5	;RP0=0, select bank0
  6006  05AF  1283               	bcf	status, 6	;RP1=0, select bank0
  6007  05B0  1303               	movf	(??_ISR+7),w
  6008  05B1  0850               	movwf	btemp+1
  6009  05B2  00FF               	movf	(??_ISR+6),w
  6010  05B3  084F               	movwf	pclath
  6011  05B4  008A               	movf	(??_ISR+5),w
  6012  05B5  084E               	movwf	fsr0
  6013  05B6  0084               	swapf	(??_ISR+4)^00h,w
  6014  05B7  0E4D               	movwf	status
  6015  05B8  0083               	swapf	saved_w,f
  6016  05B9  0EFE               	swapf	saved_w,w
  6017  05BA  0E7E               	retfie
  6018  05BB  0009               	opt stack 0
  6019                           GLOBAL	__end_of_ISR
  6020                           	__end_of_ISR:
  6021  05BC                     	signat	_ISR,89
  6022                           	global	i1_EEPROM_Write
  6023                           
  6024 ;; *************** function i1_EEPROM_Write *****************
  6025 ;; Defined at:
  6026 ;;		line 66 in file "main.c"
  6027 ;; Parameters:    Size  Location     Type
  6028 ;;  address         2    0[COMMON] int 
  6029 ;;  data            1    2[COMMON] unsigned char 
  6030 ;; Auto vars:     Size  Location     Type
  6031 ;;		None
  6032 ;; Return value:  Size  Location     Type
  6033 ;;                  1    wreg      void 
  6034 ;; Registers used:
  6035 ;;		wreg
  6036 ;; Tracked objects:
  6037 ;;		On entry : 0/0
  6038 ;;		On exit  : 0/0
  6039 ;;		Unchanged: 0/0
  6040 ;; Data sizes:     COMMON   BANK0   BANK1   BANK3   BANK2
  6041 ;;      Params:         3       0       0       0       0
  6042 ;;      Locals:         0       0       0       0       0
  6043 ;;      Temps:          0       0       0       0       0
  6044 ;;      Totals:         3       0       0       0       0
  6045 ;;Total ram usage:        3 bytes
  6046 ;; Hardware stack levels used:    1
  6047 ;; This function calls:
  6048 ;;		Nothing
  6049 ;; This function is called by:
  6050 ;;		_ISR
  6051 ;; This function uses a non-reentrant model
  6052 ;;
  6053                           psect	text6,local,class=CODE,delta=2,merge=1,group=0
  6054                           	line	66
  6055                           global __ptext6
  6056                           __ptext6:	;psect for function i1_EEPROM_Write
  6057  0A20                     psect	text6
  6058                           	file	"main.c"
  6059                           	line	66
  6060                           	global	__size_ofi1_EEPROM_Write
  6061                           	__size_ofi1_EEPROM_Write	equ	__end_ofi1_EEPROM_Write-i1_EEPROM_Write
  6062  001A                     	
  6063                           i1_EEPROM_Write:	
  6064  0A20                     ;incstack = 0
  6065                           	opt	stack 4
  6066                           ; Regs used in i1_EEPROM_Write: [wreg]
  6067                           	line	68
  6068                           	
  6069                           i1l1954:	
  6070  0A20                     ;main.c: 68:     EEADR = address;
  6071                           	movf	(i1EEPROM_Write@address),w
  6072  0A20  0870               	bcf	status, 5	;RP0=0, select bank2
  6073  0A21  1283               	bsf	status, 6	;RP1=1, select bank2
  6074  0A22  1703               	movwf	(269)^0100h	;volatile
  6075  0A23  008D               	line	69
  6076                           ;main.c: 69:     EEDATA = data;
  6077                           	movf	(i1EEPROM_Write@data),w
  6078  0A24  0872               	movwf	(268)^0100h	;volatile
  6079  0A25  008C               	line	70
  6080                           	
  6081                           i1l1956:	
  6082  0A26                     ;main.c: 70:     EECON1bits.EEPGD = 0;
  6083                           	bsf	status, 5	;RP0=1, select bank3
  6084  0A26  1683               	bsf	status, 6	;RP1=1, select bank3
  6085  0A27  1703               	bcf	(396)^0180h,7	;volsfr
  6086  0A28  138C               	line	71
  6087                           	
  6088                           i1l1958:	
  6089  0A29                     ;main.c: 71:     EECON1bits.WREN = 1;
  6090                           	bsf	(396)^0180h,2	;volsfr
  6091  0A29  150C               	line	72
  6092                           	
  6093                           i1l1960:	
  6094  0A2A                     ;main.c: 72:     INTCONbits.GIE = 0;
  6095                           	bcf	(11),7	;volatile
  6096  0A2A  138B               	line	76
  6097                           ;main.c: 76:     EECON2 = 0x55;
  6098                           	movlw	low(055h)
  6099  0A2B  3055               	movwf	(397)^0180h	;volsfr
  6100  0A2C  008D               	line	77
  6101                           ;main.c: 77:     EECON2 = 0xaa;
  6102                           	movlw	low(0AAh)
  6103  0A2D  30AA               	movwf	(397)^0180h	;volsfr
  6104  0A2E  008D               	line	79
  6105                           	
  6106                           i1l1962:	
  6107  0A2F                     ;main.c: 79:     EECON1bits.WR = 1;
  6108                           	bsf	(396)^0180h,1	;volsfr
  6109  0A2F  148C               	line	80
  6110                           	
  6111                           i1l1964:	
  6112  0A30                     ;main.c: 80:     INTCONbits.GIE = 1;
  6113                           	bsf	(11),7	;volatile
  6114  0A30  178B               	line	82
  6115                           ;main.c: 82:     while (PIR2bits.EEIF == 0);
  6116                           	goto	i1l159
  6117  0A31  2A32               	
  6118                           i1l160:	
  6119  0A32                     	
  6120                           i1l159:	
  6121  0A32                     	bcf	status, 5	;RP0=0, select bank0
  6122  0A32  1283               	bcf	status, 6	;RP1=0, select bank0
  6123  0A33  1303               	btfss	(13),4	;volatile
  6124  0A34  1E0D               	goto	u156_21
  6125  0A35  2A37               	goto	u156_20
  6126  0A36  2A38               u156_21:
  6127  0A37                     	goto	i1l159
  6128  0A37  2A32               u156_20:
  6129  0A38                     	
  6130                           i1l161:	
  6131  0A38                     	line	83
  6132                           ;main.c: 83:     PIR2bits.EEIF = 0;
  6133                           	bcf	(13),4	;volatile
  6134  0A38  120D               	line	85
  6135                           	
  6136                           i1l162:	
  6137  0A39                     	return
  6138  0A39  0008               	opt stack 0
  6139                           GLOBAL	__end_ofi1_EEPROM_Write
  6140                           	__end_ofi1_EEPROM_Write:
  6141  0A3A                     	signat	i1_EEPROM_Write,89
  6142                           	global	_UART_Write_Text_Length
  6143                           
  6144 ;; *************** function _UART_Write_Text_Length *****************
  6145 ;; Defined at:
  6146 ;;		line 71 in file "./uarthex.h"
  6147 ;; Parameters:    Size  Location     Type
  6148 ;;  str             2    1[COMMON] PTR unsigned char 
  6149 ;;		 -> data_response_8byte(9), data_response_7byte(8), data_response_13byte(14), 
  6150 ;;  length          2    3[COMMON] int 
  6151 ;; Auto vars:     Size  Location     Type
  6152 ;;  count           2    5[COMMON] int 
  6153 ;; Return value:  Size  Location     Type
  6154 ;;                  1    wreg      void 
  6155 ;; Registers used:
  6156 ;;		wreg, fsr0l, fsr0h, status,2, status,0, pclath, cstack
  6157 ;; Tracked objects:
  6158 ;;		On entry : 0/0
  6159 ;;		On exit  : 0/0
  6160 ;;		Unchanged: 0/0
  6161 ;; Data sizes:     COMMON   BANK0   BANK1   BANK3   BANK2
  6162 ;;      Params:         4       0       0       0       0
  6163 ;;      Locals:         2       0       0       0       0
  6164 ;;      Temps:          0       0       0       0       0
  6165 ;;      Totals:         6       0       0       0       0
  6166 ;;Total ram usage:        6 bytes
  6167 ;; Hardware stack levels used:    1
  6168 ;; Hardware stack levels required when called:    1
  6169 ;; This function calls:
  6170 ;;		_UART_Write
  6171 ;; This function is called by:
  6172 ;;		_ISR
  6173 ;; This function uses a non-reentrant model
  6174 ;;
  6175                           psect	text7,local,class=CODE,delta=2,merge=1,group=0
  6176                           	file	"./uarthex.h"
  6177                           	line	71
  6178                           global __ptext7
  6179                           __ptext7:	;psect for function _UART_Write_Text_Length
  6180  05BC                     psect	text7
  6181                           	file	"./uarthex.h"
  6182                           	line	71
  6183                           	global	__size_of_UART_Write_Text_Length
  6184                           	__size_of_UART_Write_Text_Length	equ	__end_of_UART_Write_Text_Length-_UART_Write_Text_L
                                 ength
  6185  0031                     	
  6186                           _UART_Write_Text_Length:	
  6187  05BC                     ;incstack = 0
  6188                           	opt	stack 3
  6189                           ; Regs used in _UART_Write_Text_Length: [wreg-fsr0h+status,2+status,0+pclath+cstack]
  6190                           	line	73
  6191                           	
  6192                           i1l2456:	
  6193  05BC                     ;./uarthex.h: 71: void UART_Write_Text_Length (char* str, int length );./uarthex.h: 72: 
                                 {;./uarthex.h: 73:     int count=0;
  6194                           	clrf	(UART_Write_Text_Length@count)
  6195  05BC  01F5               	clrf	(UART_Write_Text_Length@count+1)
  6196  05BD  01F6               	goto	i1l2458
  6197  05BE  2DBF               	line	74
  6198                           ;./uarthex.h: 74:     do {
  6199                           	
  6200                           i1l77:	
  6201  05BF                     	line	75
  6202                           	
  6203                           i1l2458:	
  6204  05BF                     ;./uarthex.h: 75:         UART_Write(*str++);
  6205                           	movf	(UART_Write_Text_Length@str),w
  6206  05BF  0871               	movwf	fsr0
  6207  05C0  0084               	bsf	status,7
  6208  05C1  1783               	btfss	(UART_Write_Text_Length@str+1),0
  6209  05C2  1C72               	bcf	status,7
  6210  05C3  1383               	movf	indf,w
  6211  05C4  0800               	fcall	_UART_Write
  6212  05C5  160A  118A  278D  120A  118A  	
  6213                           i1l2460:	
  6214  05CA                     	movlw	01h
  6215  05CA  3001               	addwf	(UART_Write_Text_Length@str),f
  6216  05CB  07F1               	skipnc
  6217  05CC  1803               	incf	(UART_Write_Text_Length@str+1),f
  6218  05CD  0AF2               	line	76
  6219                           	
  6220                           i1l2462:	
  6221  05CE                     ;./uarthex.h: 76:         count++;
  6222                           	movlw	01h
  6223  05CE  3001               	addwf	(UART_Write_Text_Length@count),f
  6224  05CF  07F5               	skipnc
  6225  05D0  1803               	incf	(UART_Write_Text_Length@count+1),f
  6226  05D1  0AF6               	movlw	0
  6227  05D2  3000               	addwf	(UART_Write_Text_Length@count+1),f
  6228  05D3  07F6               	line	77
  6229                           	
  6230                           i1l2464:	
  6231  05D4                     ;./uarthex.h: 77:         if((*str=='\0')&&(count == length ))
  6232                           	movf	(UART_Write_Text_Length@str),w
  6233  05D4  0871               	movwf	fsr0
  6234  05D5  0084               	bsf	status,7
  6235  05D6  1783               	btfss	(UART_Write_Text_Length@str+1),0
  6236  05D7  1C72               	bcf	status,7
  6237  05D8  1383               	movf	(indf),w
  6238  05D9  0800               	btfss	status,2
  6239  05DA  1D03               	goto	u210_21
  6240  05DB  2DDD               	goto	u210_20
  6241  05DC  2DDE               u210_21:
  6242  05DD                     	goto	i1l2458
  6243  05DD  2DBF               u210_20:
  6244  05DE                     	
  6245                           i1l2466:	
  6246  05DE                     	movf	(UART_Write_Text_Length@length+1),w
  6247  05DE  0874               	xorwf	(UART_Write_Text_Length@count+1),w
  6248  05DF  0676               	skipz
  6249  05E0  1D03               	goto	u211_25
  6250  05E1  2DE4               	movf	(UART_Write_Text_Length@length),w
  6251  05E2  0873               	xorwf	(UART_Write_Text_Length@count),w
  6252  05E3  0675               u211_25:
  6253  05E4                     
  6254                           	skipz
  6255  05E4  1D03               	goto	u211_21
  6256  05E5  2DE7               	goto	u211_20
  6257  05E6  2DE8               u211_21:
  6258  05E7                     	goto	i1l2458
  6259  05E7  2DBF               u211_20:
  6260  05E8                     	line	79
  6261                           	
  6262                           i1l2468:	
  6263  05E8                     ;./uarthex.h: 78:         {;./uarthex.h: 79:             count=0;
  6264                           	clrf	(UART_Write_Text_Length@count)
  6265  05E8  01F5               	clrf	(UART_Write_Text_Length@count+1)
  6266  05E9  01F6               	line	80
  6267                           ;./uarthex.h: 80:             break;
  6268                           	goto	i1l80
  6269  05EA  2DEC               	line	81
  6270                           ;./uarthex.h: 81:         }
  6271                           	
  6272                           i1l78:	
  6273  05EB                     	line	82
  6274                           ;./uarthex.h: 82:     }
  6275                           	goto	i1l2458
  6276  05EB  2DBF               	
  6277                           i1l79:	
  6278  05EC                     	line	85
  6279                           	
  6280                           i1l80:	
  6281  05EC                     	return
  6282  05EC  0008               	opt stack 0
  6283                           GLOBAL	__end_of_UART_Write_Text_Length
  6284                           	__end_of_UART_Write_Text_Length:
  6285  05ED                     	signat	_UART_Write_Text_Length,8313
  6286                           	global	_UART_Write
  6287                           
  6288 ;; *************** function _UART_Write *****************
  6289 ;; Defined at:
  6290 ;;		line 43 in file "./uarthex.h"
  6291 ;; Parameters:    Size  Location     Type
  6292 ;;  datau           1    wreg     unsigned char 
  6293 ;; Auto vars:     Size  Location     Type
  6294 ;;  datau           1    0[COMMON] unsigned char 
  6295 ;; Return value:  Size  Location     Type
  6296 ;;                  1    wreg      void 
  6297 ;; Registers used:
  6298 ;;		wreg
  6299 ;; Tracked objects:
  6300 ;;		On entry : 0/0
  6301 ;;		On exit  : 0/0
  6302 ;;		Unchanged: 0/0
  6303 ;; Data sizes:     COMMON   BANK0   BANK1   BANK3   BANK2
  6304 ;;      Params:         0       0       0       0       0
  6305 ;;      Locals:         1       0       0       0       0
  6306 ;;      Temps:          0       0       0       0       0
  6307 ;;      Totals:         1       0       0       0       0
  6308 ;;Total ram usage:        1 bytes
  6309 ;; Hardware stack levels used:    1
  6310 ;; This function calls:
  6311 ;;		Nothing
  6312 ;; This function is called by:
  6313 ;;		_UART_Write_Text_Length
  6314 ;;		_UART_Write_Text
  6315 ;;		_UART_Write_Text_2
  6316 ;; This function uses a non-reentrant model
  6317 ;;
  6318                           psect	text8,local,class=CODE,delta=2,merge=1,group=0
  6319                           	line	43
  6320                           global __ptext8
  6321                           __ptext8:	;psect for function _UART_Write
  6322  178D                     psect	text8
  6323                           	file	"./uarthex.h"
  6324                           	line	43
  6325                           	global	__size_of_UART_Write
  6326                           	__size_of_UART_Write	equ	__end_of_UART_Write-_UART_Write
  6327  000E                     	
  6328                           _UART_Write:	
  6329  178D                     ;incstack = 0
  6330                           	opt	stack 3
  6331                           ; Regs used in _UART_Write: [wreg]
  6332                           ;UART_Write@datau stored from wreg
  6333                           	movwf	(UART_Write@datau)
  6334  178D  00F0               	line	44
  6335                           	
  6336                           i1l1702:	
  6337  178E                     ;./uarthex.h: 44:     while (!TXSTAbits.TRMT);
  6338                           	goto	i1l53
  6339  178E  2F8F               	
  6340                           i1l54:	
  6341  178F                     	
  6342                           i1l53:	
  6343  178F                     	bsf	status, 5	;RP0=1, select bank1
  6344  178F  1683               	bcf	status, 6	;RP1=0, select bank1
  6345  1790  1303               	btfss	(152)^080h,1	;volatile
  6346  1791  1C98               	goto	u112_21
  6347  1792  2F94               	goto	u112_20
  6348  1793  2F95               u112_21:
  6349  1794                     	goto	i1l53
  6350  1794  2F8F               u112_20:
  6351  1795                     	goto	i1l1704
  6352  1795  2F96               	
  6353                           i1l55:	
  6354  1796                     	line	45
  6355                           	
  6356                           i1l1704:	
  6357  1796                     ;./uarthex.h: 45:     TXREG = datau;
  6358                           	movf	(UART_Write@datau),w
  6359  1796  0870               	bcf	status, 5	;RP0=0, select bank0
  6360  1797  1283               	bcf	status, 6	;RP1=0, select bank0
  6361  1798  1303               	movwf	(25)	;volatile
  6362  1799  0099               	line	46
  6363                           	
  6364                           i1l56:	
  6365  179A                     	return
  6366  179A  0008               	opt stack 0
  6367                           GLOBAL	__end_of_UART_Write
  6368                           	__end_of_UART_Write:
  6369  179B                     	signat	_UART_Write,4217
  6370                           	global	_UART_TX_Empty
  6371                           
  6372 ;; *************** function _UART_TX_Empty *****************
  6373 ;; Defined at:
  6374 ;;		line 26 in file "./uarthex.h"
  6375 ;; Parameters:    Size  Location     Type
  6376 ;;		None
  6377 ;; Auto vars:     Size  Location     Type
  6378 ;;		None
  6379 ;; Return value:  Size  Location     Type
  6380 ;;                  1    wreg      unsigned char 
  6381 ;; Registers used:
  6382 ;;		wreg, status,2, status,0
  6383 ;; Tracked objects:
  6384 ;;		On entry : 0/0
  6385 ;;		On exit  : 0/0
  6386 ;;		Unchanged: 0/0
  6387 ;; Data sizes:     COMMON   BANK0   BANK1   BANK3   BANK2
  6388 ;;      Params:         0       0       0       0       0
  6389 ;;      Locals:         0       0       0       0       0
  6390 ;;      Temps:          0       0       0       0       0
  6391 ;;      Totals:         0       0       0       0       0
  6392 ;;Total ram usage:        0 bytes
  6393 ;; Hardware stack levels used:    1
  6394 ;; This function calls:
  6395 ;;		Nothing
  6396 ;; This function is called by:
  6397 ;;		_ISR
  6398 ;; This function uses a non-reentrant model
  6399 ;;
  6400                           psect	text9,local,class=CODE,delta=2,merge=1,group=0
  6401                           	line	26
  6402                           global __ptext9
  6403                           __ptext9:	;psect for function _UART_TX_Empty
  6404  175A                     psect	text9
  6405                           	file	"./uarthex.h"
  6406                           	line	26
  6407                           	global	__size_of_UART_TX_Empty
  6408                           	__size_of_UART_TX_Empty	equ	__end_of_UART_TX_Empty-_UART_TX_Empty
  6409  0006                     	
  6410                           _UART_TX_Empty:	
  6411  175A                     ;incstack = 0
  6412                           	opt	stack 4
  6413                           ; Regs used in _UART_TX_Empty: [wreg+status,2+status,0]
  6414                           	line	27
  6415                           	
  6416                           i1l1824:	
  6417  175A                     ;./uarthex.h: 27:     return TXSTAbits.TRMT;
  6418                           	bsf	status, 5	;RP0=1, select bank1
  6419  175A  1683               	bcf	status, 6	;RP1=0, select bank1
  6420  175B  1303               	rrf	(152)^080h,w	;volatile
  6421  175C  0C18               	andlw	(1<<1)-1
  6422  175D  3901               	goto	i1l40
  6423  175E  2F5F               	
  6424                           i1l1826:	
  6425  175F                     	line	28
  6426                           	
  6427                           i1l40:	
  6428  175F                     	return
  6429  175F  0008               	opt stack 0
  6430                           GLOBAL	__end_of_UART_TX_Empty
  6431                           	__end_of_UART_TX_Empty:
  6432  1760                     	signat	_UART_TX_Empty,89
  6433                           	global	_UART_Read_Text
  6434                           
  6435 ;; *************** function _UART_Read_Text *****************
  6436 ;; Defined at:
  6437 ;;		line 49 in file "./uarthex.h"
  6438 ;; Parameters:    Size  Location     Type
  6439 ;;  Output          1    wreg     PTR unsigned char 
  6440 ;;		 -> ISR@data(8), 
  6441 ;;  length          2    0[COMMON] unsigned int 
  6442 ;; Auto vars:     Size  Location     Type
  6443 ;;  Output          1    4[COMMON] PTR unsigned char 
  6444 ;;		 -> ISR@data(8), 
  6445 ;;  i               2    5[COMMON] unsigned int 
  6446 ;; Return value:  Size  Location     Type
  6447 ;;                  1    wreg      void 
  6448 ;; Registers used:
  6449 ;;		wreg, fsr0l, fsr0h, status,2, status,0, pclath, cstack
  6450 ;; Tracked objects:
  6451 ;;		On entry : 0/0
  6452 ;;		On exit  : 0/0
  6453 ;;		Unchanged: 0/0
  6454 ;; Data sizes:     COMMON   BANK0   BANK1   BANK3   BANK2
  6455 ;;      Params:         2       0       0       0       0
  6456 ;;      Locals:         3       0       0       0       0
  6457 ;;      Temps:          2       0       0       0       0
  6458 ;;      Totals:         7       0       0       0       0
  6459 ;;Total ram usage:        7 bytes
  6460 ;; Hardware stack levels used:    1
  6461 ;; Hardware stack levels required when called:    1
  6462 ;; This function calls:
  6463 ;;		_UART_Read
  6464 ;; This function is called by:
  6465 ;;		_ISR
  6466 ;; This function uses a non-reentrant model
  6467 ;;
  6468                           psect	text10,local,class=CODE,delta=2,merge=1,group=0
  6469                           	line	49
  6470                           global __ptext10
  6471                           __ptext10:	;psect for function _UART_Read_Text
  6472  17DB                     psect	text10
  6473                           	file	"./uarthex.h"
  6474                           	line	49
  6475                           	global	__size_of_UART_Read_Text
  6476                           	__size_of_UART_Read_Text	equ	__end_of_UART_Read_Text-_UART_Read_Text
  6477  0025                     	
  6478                           _UART_Read_Text:	
  6479  17DB                     ;incstack = 0
  6480                           	opt	stack 3
  6481                           ; Regs used in _UART_Read_Text: [wreg-fsr0h+status,2+status,0+pclath+cstack]
  6482                           ;UART_Read_Text@Output stored from wreg
  6483                           	movwf	(UART_Read_Text@Output)
  6484  17DB  00F4               	line	51
  6485                           	
  6486                           i1l1828:	
  6487  17DC                     ;./uarthex.h: 50:     unsigned int i;;./uarthex.h: 51:     for (i = 0; i < length; i++)

  6488                           	clrf	(UART_Read_Text@i)
  6489  17DC  01F5               	clrf	(UART_Read_Text@i+1)
  6490  17DD  01F6               	goto	i1l1834
  6491  17DE  2FF4               	
  6492                           i1l60:	
  6493  17DF                     	line	52
  6494                           	
  6495                           i1l1830:	
  6496  17DF                     ;./uarthex.h: 52:         Output[i] = UART_Read();
  6497                           	fcall	_UART_Read
  6498  17DF  160A  118A  27A9  160A  118A  	movwf	(??_UART_Read_Text+0)+0
  6499  17E4  00F2               	movf	(UART_Read_Text@i),w
  6500  17E5  0875               	addwf	(UART_Read_Text@Output),w
  6501  17E6  0774               	movwf	(??_UART_Read_Text+1)+0
  6502  17E7  00F3               	movf	0+(??_UART_Read_Text+1)+0,w
  6503  17E8  0873               	movwf	fsr0
  6504  17E9  0084               	movf	(??_UART_Read_Text+0)+0,w
  6505  17EA  0872               	bcf	status, 7	;select IRP bank0
  6506  17EB  1383               	movwf	indf
  6507  17EC  0080               	
  6508                           i1l1832:	
  6509  17ED                     	movlw	01h
  6510  17ED  3001               	addwf	(UART_Read_Text@i),f
  6511  17EE  07F5               	skipnc
  6512  17EF  1803               	incf	(UART_Read_Text@i+1),f
  6513  17F0  0AF6               	movlw	0
  6514  17F1  3000               	addwf	(UART_Read_Text@i+1),f
  6515  17F2  07F6               	goto	i1l1834
  6516  17F3  2FF4               	
  6517                           i1l59:	
  6518  17F4                     	
  6519                           i1l1834:	
  6520  17F4                     	movf	(UART_Read_Text@length+1),w
  6521  17F4  0871               	subwf	(UART_Read_Text@i+1),w
  6522  17F5  0276               	skipz
  6523  17F6  1D03               	goto	u144_25
  6524  17F7  2FFA               	movf	(UART_Read_Text@length),w
  6525  17F8  0870               	subwf	(UART_Read_Text@i),w
  6526  17F9  0275               u144_25:
  6527  17FA                     	skipc
  6528  17FA  1C03               	goto	u144_21
  6529  17FB  2FFD               	goto	u144_20
  6530  17FC  2FFE               u144_21:
  6531  17FD                     	goto	i1l1830
  6532  17FD  2FDF               u144_20:
  6533  17FE                     	goto	i1l62
  6534  17FE  2FFF               	
  6535                           i1l61:	
  6536  17FF                     	line	54
  6537                           	
  6538                           i1l62:	
  6539  17FF                     	return
  6540  17FF  0008               	opt stack 0
  6541                           GLOBAL	__end_of_UART_Read_Text
  6542                           	__end_of_UART_Read_Text:
  6543  1800                     	signat	_UART_Read_Text,8313
  6544                           	global	_UART_Read
  6545                           
  6546 ;; *************** function _UART_Read *****************
  6547 ;; Defined at:
  6548 ;;		line 34 in file "./uarthex.h"
  6549 ;; Parameters:    Size  Location     Type
  6550 ;;		None
  6551 ;; Auto vars:     Size  Location     Type
  6552 ;;		None
  6553 ;; Return value:  Size  Location     Type
  6554 ;;                  1    wreg      unsigned char 
  6555 ;; Registers used:
  6556 ;;		wreg
  6557 ;; Tracked objects:
  6558 ;;		On entry : 0/0
  6559 ;;		On exit  : 0/0
  6560 ;;		Unchanged: 0/0
  6561 ;; Data sizes:     COMMON   BANK0   BANK1   BANK3   BANK2
  6562 ;;      Params:         0       0       0       0       0
  6563 ;;      Locals:         0       0       0       0       0
  6564 ;;      Temps:          0       0       0       0       0
  6565 ;;      Totals:         0       0       0       0       0
  6566 ;;Total ram usage:        0 bytes
  6567 ;; Hardware stack levels used:    1
  6568 ;; This function calls:
  6569 ;;		Nothing
  6570 ;; This function is called by:
  6571 ;;		_UART_Read_Text
  6572 ;; This function uses a non-reentrant model
  6573 ;;
  6574                           psect	text11,local,class=CODE,delta=2,merge=1,group=0
  6575                           	line	34
  6576                           global __ptext11
  6577                           __ptext11:	;psect for function _UART_Read
  6578  17A9                     psect	text11
  6579                           	file	"./uarthex.h"
  6580                           	line	34
  6581                           	global	__size_of_UART_Read
  6582                           	__size_of_UART_Read	equ	__end_of_UART_Read-_UART_Read
  6583  0012                     	
  6584                           _UART_Read:	
  6585  17A9                     ;incstack = 0
  6586                           	opt	stack 3
  6587                           ; Regs used in _UART_Read: [wreg]
  6588                           	line	35
  6589                           	
  6590                           i1l1694:	
  6591  17A9                     ;./uarthex.h: 35:     if (RCSTAbits.OERR) {
  6592                           	bcf	status, 5	;RP0=0, select bank0
  6593  17A9  1283               	bcf	status, 6	;RP1=0, select bank0
  6594  17AA  1303               	btfss	(24),1	;volatile
  6595  17AB  1C98               	goto	u110_21
  6596  17AC  2FAE               	goto	u110_20
  6597  17AD  2FAF               u110_21:
  6598  17AE                     	goto	i1l47
  6599  17AE  2FB3               u110_20:
  6600  17AF                     	line	36
  6601                           	
  6602                           i1l1696:	
  6603  17AF                     ;./uarthex.h: 36:         RCSTAbits.CREN = 0;
  6604                           	bcf	(24),4	;volatile
  6605  17AF  1218               	line	37
  6606                           ;./uarthex.h: 37:         RCSTAbits.CREN = 1;
  6607                           	bsf	(24),4	;volatile
  6608  17B0  1618               	goto	i1l47
  6609  17B1  2FB3               	line	38
  6610                           ;./uarthex.h: 38:     }
  6611                           	
  6612                           i1l46:	
  6613  17B2                     	line	39
  6614                           ;./uarthex.h: 39:     while (!PIR1bits.RCIF);
  6615                           	goto	i1l47
  6616  17B2  2FB3               	
  6617                           i1l48:	
  6618  17B3                     	
  6619                           i1l47:	
  6620  17B3                     	btfss	(12),5	;volatile
  6621  17B3  1E8C               	goto	u111_21
  6622  17B4  2FB6               	goto	u111_20
  6623  17B5  2FB7               u111_21:
  6624  17B6                     	goto	i1l47
  6625  17B6  2FB3               u111_20:
  6626  17B7                     	goto	i1l1698
  6627  17B7  2FB8               	
  6628                           i1l49:	
  6629  17B8                     	line	40
  6630                           	
  6631                           i1l1698:	
  6632  17B8                     ;./uarthex.h: 40:     return RCREG;
  6633                           	movf	(26),w	;volatile
  6634  17B8  081A               	goto	i1l50
  6635  17B9  2FBA               	
  6636                           i1l1700:	
  6637  17BA                     	line	41
  6638                           	
  6639                           i1l50:	
  6640  17BA                     	return
  6641  17BA  0008               	opt stack 0
  6642                           GLOBAL	__end_of_UART_Read
  6643                           	__end_of_UART_Read:
  6644  17BB                     	signat	_UART_Read,89
  6645                           	global	_EEPROM_Read
  6646                           
  6647 ;; *************** function _EEPROM_Read *****************
  6648 ;; Defined at:
  6649 ;;		line 96 in file "main.c"
  6650 ;; Parameters:    Size  Location     Type
  6651 ;;  address         2    0[COMMON] int 
  6652 ;; Auto vars:     Size  Location     Type
  6653 ;;		None
  6654 ;; Return value:  Size  Location     Type
  6655 ;;                  1    wreg      unsigned char 
  6656 ;; Registers used:
  6657 ;;		wreg
  6658 ;; Tracked objects:
  6659 ;;		On entry : 0/0
  6660 ;;		On exit  : 0/0
  6661 ;;		Unchanged: 0/0
  6662 ;; Data sizes:     COMMON   BANK0   BANK1   BANK3   BANK2
  6663 ;;      Params:         2       0       0       0       0
  6664 ;;      Locals:         0       0       0       0       0
  6665 ;;      Temps:          0       0       0       0       0
  6666 ;;      Totals:         2       0       0       0       0
  6667 ;;Total ram usage:        2 bytes
  6668 ;; Hardware stack levels used:    1
  6669 ;; This function calls:
  6670 ;;		Nothing
  6671 ;; This function is called by:
  6672 ;;		_ISR
  6673 ;; This function uses a non-reentrant model
  6674 ;;
  6675                           psect	text12,local,class=CODE,delta=2,merge=1,group=0
  6676                           	file	"main.c"
  6677                           	line	96
  6678                           global __ptext12
  6679                           __ptext12:	;psect for function _EEPROM_Read
  6680  177F                     psect	text12
  6681                           	file	"main.c"
  6682                           	line	96
  6683                           	global	__size_of_EEPROM_Read
  6684                           	__size_of_EEPROM_Read	equ	__end_of_EEPROM_Read-_EEPROM_Read
  6685  000E                     	
  6686                           _EEPROM_Read:	
  6687  177F                     ;incstack = 0
  6688                           	opt	stack 4
  6689                           ; Regs used in _EEPROM_Read: [wreg]
  6690                           	line	98
  6691                           	
  6692                           i1l1862:	
  6693  177F                     ;main.c: 98:     EEADR = address;
  6694                           	movf	(EEPROM_Read@address),w
  6695  177F  0870               	bcf	status, 5	;RP0=0, select bank2
  6696  1780  1283               	bsf	status, 6	;RP1=1, select bank2
  6697  1781  1703               	movwf	(269)^0100h	;volatile
  6698  1782  008D               	line	99
  6699                           	
  6700                           i1l1864:	
  6701  1783                     ;main.c: 99:     EECON1bits.WREN = 0;
  6702                           	bsf	status, 5	;RP0=1, select bank3
  6703  1783  1683               	bsf	status, 6	;RP1=1, select bank3
  6704  1784  1703               	bcf	(396)^0180h,2	;volsfr
  6705  1785  110C               	line	100
  6706                           	
  6707                           i1l1866:	
  6708  1786                     ;main.c: 100:     EECON1bits.EEPGD = 0;
  6709                           	bcf	(396)^0180h,7	;volsfr
  6710  1786  138C               	line	101
  6711                           	
  6712                           i1l1868:	
  6713  1787                     ;main.c: 101:     EECON1bits.RD = 1;
  6714                           	bsf	(396)^0180h,0	;volsfr
  6715  1787  140C               	line	102
  6716                           ;main.c: 102:     return (EEDATA);
  6717                           	bcf	status, 5	;RP0=0, select bank2
  6718  1788  1283               	bsf	status, 6	;RP1=1, select bank2
  6719  1789  1703               	movf	(268)^0100h,w	;volatile
  6720  178A  080C               	goto	i1l171
  6721  178B  2F8C               	
  6722                           i1l1870:	
  6723  178C                     	line	103
  6724                           	
  6725                           i1l171:	
  6726  178C                     	return
  6727  178C  0008               	opt stack 0
  6728                           GLOBAL	__end_of_EEPROM_Read
  6729                           	__end_of_EEPROM_Read:
  6730  178D                     	signat	_EEPROM_Read,4217
  6731                           	global	_CONVERT_Data_6Byte
  6732                           
  6733 ;; *************** function _CONVERT_Data_6Byte *****************
  6734 ;; Defined at:
  6735 ;;		line 134 in file "main.c"
  6736 ;; Parameters:    Size  Location     Type
  6737 ;;  input           1    wreg     PTR unsigned char 
  6738 ;;		 -> data_response_8byte(9), ISR@data(8), 
  6739 ;;  output_ref      1   12[COMMON] PTR unsigned char 
  6740 ;;		 -> ISR@crc_code_response(2), ISR@crc_code_read(2), 
  6741 ;; Auto vars:     Size  Location     Type
  6742 ;;  input           1   26[BANK0 ] PTR unsigned char 
  6743 ;;		 -> data_response_8byte(9), ISR@data(8), 
  6744 ;;  i               2   27[BANK0 ] unsigned int 
  6745 ;;  input_ref       6   16[BANK0 ] unsigned char [6]
  6746 ;;  txt             6   10[BANK0 ] unsigned char [6]
  6747 ;;  output          2   22[BANK0 ] unsigned char [2]
  6748 ;;  crc             2   24[BANK0 ] unsigned int 
  6749 ;; Return value:  Size  Location     Type
  6750 ;;                  1    wreg      void 
  6751 ;; Registers used:
  6752 ;;		wreg, fsr0l, fsr0h, status,2, status,0, btemp+1, pclath, cstack
  6753 ;; Tracked objects:
  6754 ;;		On entry : 0/0
  6755 ;;		On exit  : 0/0
  6756 ;;		Unchanged: 0/0
  6757 ;; Data sizes:     COMMON   BANK0   BANK1   BANK3   BANK2
  6758 ;;      Params:         1       0       0       0       0
  6759 ;;      Locals:         0      19       0       0       0
  6760 ;;      Temps:          0       2       0       0       0
  6761 ;;      Totals:         1      21       0       0       0
  6762 ;;Total ram usage:       22 bytes
  6763 ;; Hardware stack levels used:    1
  6764 ;; Hardware stack levels required when called:    2
  6765 ;; This function calls:
  6766 ;;		_crc16
  6767 ;;		_reflect_byte
  6768 ;; This function is called by:
  6769 ;;		_ISR
  6770 ;; This function uses a non-reentrant model
  6771 ;;
  6772                           psect	text13,local,class=CODE,delta=2,merge=1,group=0
  6773                           	line	134
  6774                           global __ptext13
  6775                           __ptext13:	;psect for function _CONVERT_Data_6Byte
  6776  0B23                     psect	text13
  6777                           	file	"main.c"
  6778                           	line	134
  6779                           	global	__size_of_CONVERT_Data_6Byte
  6780                           	__size_of_CONVERT_Data_6Byte	equ	__end_of_CONVERT_Data_6Byte-_CONVERT_Data_6Byte
  6781  0099                     	
  6782                           _CONVERT_Data_6Byte:	
  6783  0B23                     ;incstack = 0
  6784                           	opt	stack 2
  6785                           ; Regs used in _CONVERT_Data_6Byte: [wreg-fsr0h+status,2+status,0+btemp+1+pclath+cstack]
                                 
  6786                           ;CONVERT_Data_6Byte@input stored from wreg
  6787                           	bcf	status, 5	;RP0=0, select bank0
  6788  0B23  1283               	bcf	status, 6	;RP1=0, select bank0
  6789  0B24  1303               	movwf	(CONVERT_Data_6Byte@input)
  6790  0B25  00BA               	line	136
  6791                           	
  6792                           i1l2496:	
  6793  0B26                     ;main.c: 136:     unsigned char input_ref[6] = "";
  6794                           	movlw	(CONVERT_Data_6Byte@input_ref)&0ffh
  6795  0B26  3030               	movwf	fsr0
  6796  0B27  0084               	bsf	status, 5	;RP0=1, select bank1
  6797  0B28  1683               	bcf	status, 6	;RP1=0, select bank1
  6798  0B29  1303               	movf	(CONVERT_Data_6Byte@F1501)^080h,w
  6799  0B2A  082E               	bcf	status, 7	;select IRP bank0
  6800  0B2B  1383               	movwf	indf
  6801  0B2C  0080               	incf	fsr0,f
  6802  0B2D  0A84               	movf	(CONVERT_Data_6Byte@F1501)^080h+1,w
  6803  0B2E  082F               	movwf	indf
  6804  0B2F  0080               	incf	fsr0,f
  6805  0B30  0A84               	movf	(CONVERT_Data_6Byte@F1501)^080h+2,w
  6806  0B31  0830               	movwf	indf
  6807  0B32  0080               	incf	fsr0,f
  6808  0B33  0A84               	movf	(CONVERT_Data_6Byte@F1501)^080h+3,w
  6809  0B34  0831               	movwf	indf
  6810  0B35  0080               	incf	fsr0,f
  6811  0B36  0A84               	movf	(CONVERT_Data_6Byte@F1501)^080h+4,w
  6812  0B37  0832               	movwf	indf
  6813  0B38  0080               	incf	fsr0,f
  6814  0B39  0A84               	movf	(CONVERT_Data_6Byte@F1501)^080h+5,w
  6815  0B3A  0833               	movwf	indf
  6816  0B3B  0080               	line	137
  6817                           ;main.c: 137:     unsigned char txt[6] = "";
  6818                           	movlw	(CONVERT_Data_6Byte@txt)&0ffh
  6819  0B3C  302A               	movwf	fsr0
  6820  0B3D  0084               	movf	(CONVERT_Data_6Byte@F1503)^080h,w
  6821  0B3E  0828               	movwf	indf
  6822  0B3F  0080               	incf	fsr0,f
  6823  0B40  0A84               	movf	(CONVERT_Data_6Byte@F1503)^080h+1,w
  6824  0B41  0829               	movwf	indf
  6825  0B42  0080               	incf	fsr0,f
  6826  0B43  0A84               	movf	(CONVERT_Data_6Byte@F1503)^080h+2,w
  6827  0B44  082A               	movwf	indf
  6828  0B45  0080               	incf	fsr0,f
  6829  0B46  0A84               	movf	(CONVERT_Data_6Byte@F1503)^080h+3,w
  6830  0B47  082B               	movwf	indf
  6831  0B48  0080               	incf	fsr0,f
  6832  0B49  0A84               	movf	(CONVERT_Data_6Byte@F1503)^080h+4,w
  6833  0B4A  082C               	movwf	indf
  6834  0B4B  0080               	incf	fsr0,f
  6835  0B4C  0A84               	movf	(CONVERT_Data_6Byte@F1503)^080h+5,w
  6836  0B4D  082D               	movwf	indf
  6837  0B4E  0080               	line	139
  6838                           	
  6839                           i1l2498:	
  6840  0B4F                     ;main.c: 138:     unsigned int crc;;main.c: 139:     unsigned char output[2] = "";
  6841                           	bcf	status, 5	;RP0=0, select bank0
  6842  0B4F  1283               	bcf	status, 6	;RP1=0, select bank0
  6843  0B50  1303               	movf	(CONVERT_Data_6Byte@F1506+1),w
  6844  0B51  086C               	movwf	(CONVERT_Data_6Byte@output+1)
  6845  0B52  00B7               	movf	(CONVERT_Data_6Byte@F1506),w
  6846  0B53  086B               	movwf	(CONVERT_Data_6Byte@output)
  6847  0B54  00B6               	line	140
  6848                           	
  6849                           i1l2500:	
  6850  0B55                     ;main.c: 140:     reflect_byte(input, input_ref, 6);
  6851                           	movf	(CONVERT_Data_6Byte@input),w
  6852  0B55  083A               	movwf	(reflect_byte@byte)
  6853  0B56  00F0               	movlw	(0x0)
  6854  0B57  3000               	movwf	(reflect_byte@byte+1)
  6855  0B58  00F1               	movlw	(low(CONVERT_Data_6Byte@input_ref|((0x0)<<8)))&0ffh
  6856  0B59  3030               	movwf	(??_CONVERT_Data_6Byte+0)+0
  6857  0B5A  00A8               	movf	(??_CONVERT_Data_6Byte+0)+0,w
  6858  0B5B  0828               	movwf	(reflect_byte@byte_ref)
  6859  0B5C  00F2               	movlw	low(06h)
  6860  0B5D  3006               	movwf	(??_CONVERT_Data_6Byte+1)+0
  6861  0B5E  00A9               	movf	(??_CONVERT_Data_6Byte+1)+0,w
  6862  0B5F  0829               	movwf	(reflect_byte@index)
  6863  0B60  00F3               	fcall	_reflect_byte
  6864  0B61  120A  158A  223A  120A  158A  	line	144
  6865                           	
  6866                           i1l2502:	
  6867  0B66                     ;main.c: 144:     for (unsigned int i = 0; i < 6; i++) {
  6868                           	bcf	status, 5	;RP0=0, select bank0
  6869  0B66  1283               	bcf	status, 6	;RP1=0, select bank0
  6870  0B67  1303               	clrf	(CONVERT_Data_6Byte@i)
  6871  0B68  01BB               	clrf	(CONVERT_Data_6Byte@i+1)
  6872  0B69  01BC               	
  6873                           i1l2504:	
  6874  0B6A                     	movlw	0
  6875  0B6A  3000               	subwf	(CONVERT_Data_6Byte@i+1),w
  6876  0B6B  023C               	movlw	06h
  6877  0B6C  3006               	skipnz
  6878  0B6D  1903               	subwf	(CONVERT_Data_6Byte@i),w
  6879  0B6E  023B               	skipc
  6880  0B6F  1C03               	goto	u214_21
  6881  0B70  2B72               	goto	u214_20
  6882  0B71  2B73               u214_21:
  6883  0B72                     	goto	i1l2508
  6884  0B72  2B75               u214_20:
  6885  0B73                     	goto	i1l2514
  6886  0B73  2B92               	
  6887                           i1l2506:	
  6888  0B74                     	goto	i1l2514
  6889  0B74  2B92               	
  6890                           i1l191:	
  6891  0B75                     	line	145
  6892                           	
  6893                           i1l2508:	
  6894  0B75                     ;main.c: 145:         txt[i] = input_ref[6 - 1 - i];
  6895                           	decf	(CONVERT_Data_6Byte@i),w
  6896  0B75  033B               	xorlw	0ffh
  6897  0B76  3AFF               	addlw	05h
  6898  0B77  3E05               	addlw	low(CONVERT_Data_6Byte@input_ref|((0x0)<<8))&0ffh
  6899  0B78  3E30               	movwf	fsr0
  6900  0B79  0084               	bcf	status, 7	;select IRP bank0
  6901  0B7A  1383               	movf	indf,w
  6902  0B7B  0800               	movwf	(??_CONVERT_Data_6Byte+0)+0
  6903  0B7C  00A8               	movf	(CONVERT_Data_6Byte@i),w
  6904  0B7D  083B               	addlw	low(CONVERT_Data_6Byte@txt|((0x0)<<8))&0ffh
  6905  0B7E  3E2A               	movwf	fsr0
  6906  0B7F  0084               	movf	(??_CONVERT_Data_6Byte+0)+0,w
  6907  0B80  0828               	movwf	indf
  6908  0B81  0080               	line	146
  6909                           	
  6910                           i1l2510:	
  6911  0B82                     ;main.c: 146:     }
  6912                           	movlw	01h
  6913  0B82  3001               	addwf	(CONVERT_Data_6Byte@i),f
  6914  0B83  07BB               	skipnc
  6915  0B84  1803               	incf	(CONVERT_Data_6Byte@i+1),f
  6916  0B85  0ABC               	movlw	0
  6917  0B86  3000               	addwf	(CONVERT_Data_6Byte@i+1),f
  6918  0B87  07BC               	
  6919                           i1l2512:	
  6920  0B88                     	movlw	0
  6921  0B88  3000               	subwf	(CONVERT_Data_6Byte@i+1),w
  6922  0B89  023C               	movlw	06h
  6923  0B8A  3006               	skipnz
  6924  0B8B  1903               	subwf	(CONVERT_Data_6Byte@i),w
  6925  0B8C  023B               	skipc
  6926  0B8D  1C03               	goto	u215_21
  6927  0B8E  2B90               	goto	u215_20
  6928  0B8F  2B91               u215_21:
  6929  0B90                     	goto	i1l2508
  6930  0B90  2B75               u215_20:
  6931  0B91                     	goto	i1l2514
  6932  0B91  2B92               	
  6933                           i1l192:	
  6934  0B92                     	line	148
  6935                           	
  6936                           i1l2514:	
  6937  0B92                     ;main.c: 148:     crc = crc16(txt, 6);
  6938                           	movlw	06h
  6939  0B92  3006               	movwf	(crc16@dataLen)
  6940  0B93  00F0               	movlw	0
  6941  0B94  3000               	movwf	((crc16@dataLen))+1
  6942  0B95  00F1               	movlw	(low(CONVERT_Data_6Byte@txt|((0x0)<<8)))&0ffh
  6943  0B96  302A               	fcall	_crc16
  6944  0B97  120A  158A  24FC  120A  158A  	movf	(1+(?_crc16)),w
  6945  0B9C  0871               	bcf	status, 5	;RP0=0, select bank0
  6946  0B9D  1283               	bcf	status, 6	;RP1=0, select bank0
  6947  0B9E  1303               	movwf	(CONVERT_Data_6Byte@crc+1)
  6948  0B9F  00B9               	movf	(0+(?_crc16)),w
  6949  0BA0  0870               	movwf	(CONVERT_Data_6Byte@crc)
  6950  0BA1  00B8               	line	149
  6951                           	
  6952                           i1l2516:	
  6953  0BA2                     ;main.c: 149:     output[0] = crc & 0xff;
  6954                           	movf	(CONVERT_Data_6Byte@crc),w
  6955  0BA2  0838               	movwf	(??_CONVERT_Data_6Byte+0)+0
  6956  0BA3  00A8               	movf	(??_CONVERT_Data_6Byte+0)+0,w
  6957  0BA4  0828               	movwf	(CONVERT_Data_6Byte@output)
  6958  0BA5  00B6               	line	150
  6959                           	
  6960                           i1l2518:	
  6961  0BA6                     ;main.c: 150:     output[1] = (crc >> 8)&0xff;
  6962                           	movf	(CONVERT_Data_6Byte@crc+1),w
  6963  0BA6  0839               	movwf	(??_CONVERT_Data_6Byte+0)+0
  6964  0BA7  00A8               	movf	(??_CONVERT_Data_6Byte+0)+0,w
  6965  0BA8  0828               	movwf	0+(CONVERT_Data_6Byte@output)+01h
  6966  0BA9  00B7               	line	154
  6967                           	
  6968                           i1l2520:	
  6969  0BAA                     ;main.c: 154:     reflect_byte(output, output_ref, 2);
  6970                           	movlw	(low(CONVERT_Data_6Byte@output|((0x0)<<8))&0ffh)
  6971  0BAA  3036               	movwf	(reflect_byte@byte)
  6972  0BAB  00F0               	movlw	(0x0)
  6973  0BAC  3000               	movwf	(reflect_byte@byte+1)
  6974  0BAD  00F1               	movf	(CONVERT_Data_6Byte@output_ref),w
  6975  0BAE  087C               	movwf	(??_CONVERT_Data_6Byte+0)+0
  6976  0BAF  00A8               	movf	(??_CONVERT_Data_6Byte+0)+0,w
  6977  0BB0  0828               	movwf	(reflect_byte@byte_ref)
  6978  0BB1  00F2               	movlw	low(02h)
  6979  0BB2  3002               	movwf	(??_CONVERT_Data_6Byte+1)+0
  6980  0BB3  00A9               	movf	(??_CONVERT_Data_6Byte+1)+0,w
  6981  0BB4  0829               	movwf	(reflect_byte@index)
  6982  0BB5  00F3               	fcall	_reflect_byte
  6983  0BB6  120A  158A  223A  120A  158A  	line	157
  6984                           	
  6985                           i1l193:	
  6986  0BBB                     	return
  6987  0BBB  0008               	opt stack 0
  6988                           GLOBAL	__end_of_CONVERT_Data_6Byte
  6989                           	__end_of_CONVERT_Data_6Byte:
  6990  0BBC                     	signat	_CONVERT_Data_6Byte,8313
  6991                           	global	_CONVERT_Data_5Byte
  6992                           
  6993 ;; *************** function _CONVERT_Data_5Byte *****************
  6994 ;; Defined at:
  6995 ;;		line 107 in file "main.c"
  6996 ;; Parameters:    Size  Location     Type
  6997 ;;  input           1    wreg     PTR unsigned char 
  6998 ;;		 -> data_response_7byte(8), 
  6999 ;;  output_ref      1   12[COMMON] PTR unsigned char 
  7000 ;;		 -> ISR@crc_code_response(2), 
  7001 ;; Auto vars:     Size  Location     Type
  7002 ;;  input           1   24[BANK0 ] PTR unsigned char 
  7003 ;;		 -> data_response_7byte(8), 
  7004 ;;  i               2   25[BANK0 ] unsigned int 
  7005 ;;  input_ref       5   15[BANK0 ] unsigned char [5]
  7006 ;;  txt             5   10[BANK0 ] unsigned char [5]
  7007 ;;  output          2   20[BANK0 ] unsigned char [2]
  7008 ;;  crc             2   22[BANK0 ] unsigned int 
  7009 ;; Return value:  Size  Location     Type
  7010 ;;                  1    wreg      void 
  7011 ;; Registers used:
  7012 ;;		wreg, fsr0l, fsr0h, status,2, status,0, btemp+1, pclath, cstack
  7013 ;; Tracked objects:
  7014 ;;		On entry : 0/0
  7015 ;;		On exit  : 0/0
  7016 ;;		Unchanged: 0/0
  7017 ;; Data sizes:     COMMON   BANK0   BANK1   BANK3   BANK2
  7018 ;;      Params:         1       0       0       0       0
  7019 ;;      Locals:         0      17       0       0       0
  7020 ;;      Temps:          0       2       0       0       0
  7021 ;;      Totals:         1      19       0       0       0
  7022 ;;Total ram usage:       20 bytes
  7023 ;; Hardware stack levels used:    1
  7024 ;; Hardware stack levels required when called:    2
  7025 ;; This function calls:
  7026 ;;		_crc16
  7027 ;;		_reflect_byte
  7028 ;; This function is called by:
  7029 ;;		_ISR
  7030 ;; This function uses a non-reentrant model
  7031 ;;
  7032                           psect	text14,local,class=CODE,delta=2,merge=1,group=0
  7033                           	line	107
  7034                           global __ptext14
  7035                           __ptext14:	;psect for function _CONVERT_Data_5Byte
  7036  0A90                     psect	text14
  7037                           	file	"main.c"
  7038                           	line	107
  7039                           	global	__size_of_CONVERT_Data_5Byte
  7040                           	__size_of_CONVERT_Data_5Byte	equ	__end_of_CONVERT_Data_5Byte-_CONVERT_Data_5Byte
  7041  0093                     	
  7042                           _CONVERT_Data_5Byte:	
  7043  0A90                     ;incstack = 0
  7044                           	opt	stack 2
  7045                           ; Regs used in _CONVERT_Data_5Byte: [wreg-fsr0h+status,2+status,0+btemp+1+pclath+cstack]
                                 
  7046                           ;CONVERT_Data_5Byte@input stored from wreg
  7047                           	bcf	status, 5	;RP0=0, select bank0
  7048  0A90  1283               	bcf	status, 6	;RP1=0, select bank0
  7049  0A91  1303               	movwf	(CONVERT_Data_5Byte@input)
  7050  0A92  00B8               	line	109
  7051                           	
  7052                           i1l2470:	
  7053  0A93                     ;main.c: 109:     unsigned char input_ref[5] = "";
  7054                           	movlw	(CONVERT_Data_5Byte@input_ref)&0ffh
  7055  0A93  302F               	movwf	fsr0
  7056  0A94  0084               	bsf	status, 5	;RP0=1, select bank1
  7057  0A95  1683               	bcf	status, 6	;RP1=0, select bank1
  7058  0A96  1303               	movf	(CONVERT_Data_5Byte@F1490)^080h,w
  7059  0A97  0839               	bcf	status, 7	;select IRP bank0
  7060  0A98  1383               	movwf	indf
  7061  0A99  0080               	incf	fsr0,f
  7062  0A9A  0A84               	movf	(CONVERT_Data_5Byte@F1490)^080h+1,w
  7063  0A9B  083A               	movwf	indf
  7064  0A9C  0080               	incf	fsr0,f
  7065  0A9D  0A84               	movf	(CONVERT_Data_5Byte@F1490)^080h+2,w
  7066  0A9E  083B               	movwf	indf
  7067  0A9F  0080               	incf	fsr0,f
  7068  0AA0  0A84               	movf	(CONVERT_Data_5Byte@F1490)^080h+3,w
  7069  0AA1  083C               	movwf	indf
  7070  0AA2  0080               	incf	fsr0,f
  7071  0AA3  0A84               	movf	(CONVERT_Data_5Byte@F1490)^080h+4,w
  7072  0AA4  083D               	movwf	indf
  7073  0AA5  0080               	line	110
  7074                           ;main.c: 110:     unsigned char txt[5] = "";
  7075                           	movlw	(CONVERT_Data_5Byte@txt)&0ffh
  7076  0AA6  302A               	movwf	fsr0
  7077  0AA7  0084               	movf	(CONVERT_Data_5Byte@F1492)^080h,w
  7078  0AA8  0834               	movwf	indf
  7079  0AA9  0080               	incf	fsr0,f
  7080  0AAA  0A84               	movf	(CONVERT_Data_5Byte@F1492)^080h+1,w
  7081  0AAB  0835               	movwf	indf
  7082  0AAC  0080               	incf	fsr0,f
  7083  0AAD  0A84               	movf	(CONVERT_Data_5Byte@F1492)^080h+2,w
  7084  0AAE  0836               	movwf	indf
  7085  0AAF  0080               	incf	fsr0,f
  7086  0AB0  0A84               	movf	(CONVERT_Data_5Byte@F1492)^080h+3,w
  7087  0AB1  0837               	movwf	indf
  7088  0AB2  0080               	incf	fsr0,f
  7089  0AB3  0A84               	movf	(CONVERT_Data_5Byte@F1492)^080h+4,w
  7090  0AB4  0838               	movwf	indf
  7091  0AB5  0080               	line	112
  7092                           	
  7093                           i1l2472:	
  7094  0AB6                     ;main.c: 111:     unsigned int crc;;main.c: 112:     unsigned char output[2] = "";
  7095                           	bcf	status, 5	;RP0=0, select bank0
  7096  0AB6  1283               	bcf	status, 6	;RP1=0, select bank0
  7097  0AB7  1303               	movf	(CONVERT_Data_5Byte@F1495+1),w
  7098  0AB8  086E               	movwf	(CONVERT_Data_5Byte@output+1)
  7099  0AB9  00B5               	movf	(CONVERT_Data_5Byte@F1495),w
  7100  0ABA  086D               	movwf	(CONVERT_Data_5Byte@output)
  7101  0ABB  00B4               	line	113
  7102                           	
  7103                           i1l2474:	
  7104  0ABC                     ;main.c: 113:     reflect_byte(input, input_ref, 5);
  7105                           	movf	(CONVERT_Data_5Byte@input),w
  7106  0ABC  0838               	movwf	(reflect_byte@byte)
  7107  0ABD  00F0               	movlw	(0x0)
  7108  0ABE  3000               	movwf	(reflect_byte@byte+1)
  7109  0ABF  00F1               	movlw	(low(CONVERT_Data_5Byte@input_ref|((0x0)<<8)))&0ffh
  7110  0AC0  302F               	movwf	(??_CONVERT_Data_5Byte+0)+0
  7111  0AC1  00A8               	movf	(??_CONVERT_Data_5Byte+0)+0,w
  7112  0AC2  0828               	movwf	(reflect_byte@byte_ref)
  7113  0AC3  00F2               	movlw	low(05h)
  7114  0AC4  3005               	movwf	(??_CONVERT_Data_5Byte+1)+0
  7115  0AC5  00A9               	movf	(??_CONVERT_Data_5Byte+1)+0,w
  7116  0AC6  0829               	movwf	(reflect_byte@index)
  7117  0AC7  00F3               	fcall	_reflect_byte
  7118  0AC8  120A  158A  223A  120A  158A  	line	117
  7119                           	
  7120                           i1l2476:	
  7121  0ACD                     ;main.c: 117:     for (unsigned int i = 0; i < 5; i++) {
  7122                           	bcf	status, 5	;RP0=0, select bank0
  7123  0ACD  1283               	bcf	status, 6	;RP1=0, select bank0
  7124  0ACE  1303               	clrf	(CONVERT_Data_5Byte@i)
  7125  0ACF  01B9               	clrf	(CONVERT_Data_5Byte@i+1)
  7126  0AD0  01BA               	
  7127                           i1l2478:	
  7128  0AD1                     	movlw	0
  7129  0AD1  3000               	subwf	(CONVERT_Data_5Byte@i+1),w
  7130  0AD2  023A               	movlw	05h
  7131  0AD3  3005               	skipnz
  7132  0AD4  1903               	subwf	(CONVERT_Data_5Byte@i),w
  7133  0AD5  0239               	skipc
  7134  0AD6  1C03               	goto	u212_21
  7135  0AD7  2AD9               	goto	u212_20
  7136  0AD8  2ADA               u212_21:
  7137  0AD9                     	goto	i1l2482
  7138  0AD9  2ADC               u212_20:
  7139  0ADA                     	goto	i1l2488
  7140  0ADA  2AF9               	
  7141                           i1l2480:	
  7142  0ADB                     	goto	i1l2488
  7143  0ADB  2AF9               	
  7144                           i1l180:	
  7145  0ADC                     	line	118
  7146                           	
  7147                           i1l2482:	
  7148  0ADC                     ;main.c: 118:         txt[i] = input_ref[5 - 1 - i];
  7149                           	decf	(CONVERT_Data_5Byte@i),w
  7150  0ADC  0339               	xorlw	0ffh
  7151  0ADD  3AFF               	addlw	04h
  7152  0ADE  3E04               	addlw	low(CONVERT_Data_5Byte@input_ref|((0x0)<<8))&0ffh
  7153  0ADF  3E2F               	movwf	fsr0
  7154  0AE0  0084               	bcf	status, 7	;select IRP bank0
  7155  0AE1  1383               	movf	indf,w
  7156  0AE2  0800               	movwf	(??_CONVERT_Data_5Byte+0)+0
  7157  0AE3  00A8               	movf	(CONVERT_Data_5Byte@i),w
  7158  0AE4  0839               	addlw	low(CONVERT_Data_5Byte@txt|((0x0)<<8))&0ffh
  7159  0AE5  3E2A               	movwf	fsr0
  7160  0AE6  0084               	movf	(??_CONVERT_Data_5Byte+0)+0,w
  7161  0AE7  0828               	movwf	indf
  7162  0AE8  0080               	line	119
  7163                           	
  7164                           i1l2484:	
  7165  0AE9                     ;main.c: 119:     }
  7166                           	movlw	01h
  7167  0AE9  3001               	addwf	(CONVERT_Data_5Byte@i),f
  7168  0AEA  07B9               	skipnc
  7169  0AEB  1803               	incf	(CONVERT_Data_5Byte@i+1),f
  7170  0AEC  0ABA               	movlw	0
  7171  0AED  3000               	addwf	(CONVERT_Data_5Byte@i+1),f
  7172  0AEE  07BA               	
  7173                           i1l2486:	
  7174  0AEF                     	movlw	0
  7175  0AEF  3000               	subwf	(CONVERT_Data_5Byte@i+1),w
  7176  0AF0  023A               	movlw	05h
  7177  0AF1  3005               	skipnz
  7178  0AF2  1903               	subwf	(CONVERT_Data_5Byte@i),w
  7179  0AF3  0239               	skipc
  7180  0AF4  1C03               	goto	u213_21
  7181  0AF5  2AF7               	goto	u213_20
  7182  0AF6  2AF8               u213_21:
  7183  0AF7                     	goto	i1l2482
  7184  0AF7  2ADC               u213_20:
  7185  0AF8                     	goto	i1l2488
  7186  0AF8  2AF9               	
  7187                           i1l181:	
  7188  0AF9                     	line	121
  7189                           	
  7190                           i1l2488:	
  7191  0AF9                     ;main.c: 121:     crc = crc16(txt, 5);
  7192                           	movlw	05h
  7193  0AF9  3005               	movwf	(crc16@dataLen)
  7194  0AFA  00F0               	movlw	0
  7195  0AFB  3000               	movwf	((crc16@dataLen))+1
  7196  0AFC  00F1               	movlw	(low(CONVERT_Data_5Byte@txt|((0x0)<<8)))&0ffh
  7197  0AFD  302A               	fcall	_crc16
  7198  0AFE  120A  158A  24FC  120A  158A  	movf	(1+(?_crc16)),w
  7199  0B03  0871               	bcf	status, 5	;RP0=0, select bank0
  7200  0B04  1283               	bcf	status, 6	;RP1=0, select bank0
  7201  0B05  1303               	movwf	(CONVERT_Data_5Byte@crc+1)
  7202  0B06  00B7               	movf	(0+(?_crc16)),w
  7203  0B07  0870               	movwf	(CONVERT_Data_5Byte@crc)
  7204  0B08  00B6               	line	122
  7205                           	
  7206                           i1l2490:	
  7207  0B09                     ;main.c: 122:     output[0] = crc & 0xff;
  7208                           	movf	(CONVERT_Data_5Byte@crc),w
  7209  0B09  0836               	movwf	(??_CONVERT_Data_5Byte+0)+0
  7210  0B0A  00A8               	movf	(??_CONVERT_Data_5Byte+0)+0,w
  7211  0B0B  0828               	movwf	(CONVERT_Data_5Byte@output)
  7212  0B0C  00B4               	line	123
  7213                           	
  7214                           i1l2492:	
  7215  0B0D                     ;main.c: 123:     output[1] = (crc >> 8)&0xff;
  7216                           	movf	(CONVERT_Data_5Byte@crc+1),w
  7217  0B0D  0837               	movwf	(??_CONVERT_Data_5Byte+0)+0
  7218  0B0E  00A8               	movf	(??_CONVERT_Data_5Byte+0)+0,w
  7219  0B0F  0828               	movwf	0+(CONVERT_Data_5Byte@output)+01h
  7220  0B10  00B5               	line	127
  7221                           	
  7222                           i1l2494:	
  7223  0B11                     ;main.c: 127:     reflect_byte(output, output_ref, 2);
  7224                           	movlw	(low(CONVERT_Data_5Byte@output|((0x0)<<8))&0ffh)
  7225  0B11  3034               	movwf	(reflect_byte@byte)
  7226  0B12  00F0               	movlw	(0x0)
  7227  0B13  3000               	movwf	(reflect_byte@byte+1)
  7228  0B14  00F1               	movf	(CONVERT_Data_5Byte@output_ref),w
  7229  0B15  087C               	movwf	(??_CONVERT_Data_5Byte+0)+0
  7230  0B16  00A8               	movf	(??_CONVERT_Data_5Byte+0)+0,w
  7231  0B17  0828               	movwf	(reflect_byte@byte_ref)
  7232  0B18  00F2               	movlw	low(02h)
  7233  0B19  3002               	movwf	(??_CONVERT_Data_5Byte+1)+0
  7234  0B1A  00A9               	movf	(??_CONVERT_Data_5Byte+1)+0,w
  7235  0B1B  0829               	movwf	(reflect_byte@index)
  7236  0B1C  00F3               	fcall	_reflect_byte
  7237  0B1D  120A  158A  223A  120A  158A  	line	131
  7238                           	
  7239                           i1l182:	
  7240  0B22                     	return
  7241  0B22  0008               	opt stack 0
  7242                           GLOBAL	__end_of_CONVERT_Data_5Byte
  7243                           	__end_of_CONVERT_Data_5Byte:
  7244  0B23                     	signat	_CONVERT_Data_5Byte,8313
  7245                           	global	_CONVERT_Data_11Byte
  7246                           
  7247 ;; *************** function _CONVERT_Data_11Byte *****************
  7248 ;; Defined at:
  7249 ;;		line 159 in file "main.c"
  7250 ;; Parameters:    Size  Location     Type
  7251 ;;  input           1    wreg     PTR unsigned char 
  7252 ;;		 -> data_response_13byte(14), 
  7253 ;;  output_ref      1   12[COMMON] PTR unsigned char 
  7254 ;;		 -> ISR@crc_code_response(2), 
  7255 ;; Auto vars:     Size  Location     Type
  7256 ;;  input           1   34[BANK0 ] PTR unsigned char 
  7257 ;;		 -> data_response_13byte(14), 
  7258 ;;  i               2   39[BANK0 ] unsigned int 
  7259 ;;  input_ref      11   23[BANK0 ] unsigned char [11]
  7260 ;;  txt            11   12[BANK0 ] unsigned char [11]
  7261 ;;  output          2   35[BANK0 ] unsigned char [2]
  7262 ;;  crc             2   37[BANK0 ] unsigned int 
  7263 ;; Return value:  Size  Location     Type
  7264 ;;                  1    wreg      void 
  7265 ;; Registers used:
  7266 ;;		wreg, fsr0l, fsr0h, status,2, status,0, btemp+1, pclath, cstack
  7267 ;; Tracked objects:
  7268 ;;		On entry : 0/0
  7269 ;;		On exit  : 0/0
  7270 ;;		Unchanged: 0/0
  7271 ;; Data sizes:     COMMON   BANK0   BANK1   BANK3   BANK2
  7272 ;;      Params:         1       0       0       0       0
  7273 ;;      Locals:         0      29       0       0       0
  7274 ;;      Temps:          0       4       0       0       0
  7275 ;;      Totals:         1      33       0       0       0
  7276 ;;Total ram usage:       34 bytes
  7277 ;; Hardware stack levels used:    1
  7278 ;; Hardware stack levels required when called:    2
  7279 ;; This function calls:
  7280 ;;		_crc16
  7281 ;;		_reflect_byte
  7282 ;; This function is called by:
  7283 ;;		_ISR
  7284 ;; This function uses a non-reentrant model
  7285 ;;
  7286                           psect	text15,local,class=CODE,delta=2,merge=1,group=0
  7287                           	line	159
  7288                           global __ptext15
  7289                           __ptext15:	;psect for function _CONVERT_Data_11Byte
  7290  0BBC                     psect	text15
  7291                           	file	"main.c"
  7292                           	line	159
  7293                           	global	__size_of_CONVERT_Data_11Byte
  7294                           	__size_of_CONVERT_Data_11Byte	equ	__end_of_CONVERT_Data_11Byte-_CONVERT_Data_11Byte
  7295  009A                     	
  7296                           _CONVERT_Data_11Byte:	
  7297  0BBC                     ;incstack = 0
  7298                           	opt	stack 2
  7299                           ; Regs used in _CONVERT_Data_11Byte: [wreg-fsr0h+status,2+status,0+btemp+1+pclath+cstack
                                 ]
  7300                           ;CONVERT_Data_11Byte@input stored from wreg
  7301                           	bcf	status, 5	;RP0=0, select bank0
  7302  0BBC  1283               	bcf	status, 6	;RP1=0, select bank0
  7303  0BBD  1303               	movwf	(CONVERT_Data_11Byte@input)
  7304  0BBE  00C2               	line	161
  7305                           	
  7306                           i1l2522:	
  7307  0BBF                     ;main.c: 161:     unsigned char input_ref[11] = "";
  7308                           	movlw	(CONVERT_Data_11Byte@input_ref)&0ffh
  7309  0BBF  3037               	movwf	fsr0
  7310  0BC0  0084               	movlw	low(CONVERT_Data_11Byte@F1512)
  7311  0BC1  309B               	movwf	(??_CONVERT_Data_11Byte+0)+0
  7312  0BC2  00A8               	movf	fsr0,w
  7313  0BC3  0804               	movwf	((??_CONVERT_Data_11Byte+0)+0+1)
  7314  0BC4  00A9               	movlw	11
  7315  0BC5  300B               	movwf	((??_CONVERT_Data_11Byte+0)+0+2)
  7316  0BC6  00AA               u216_20:
  7317  0BC7                     	movf	(??_CONVERT_Data_11Byte+0)+0,w
  7318  0BC7  0828               	movwf	fsr0
  7319  0BC8  0084               	bsf	status, 7	;select IRP bank3
  7320  0BC9  1783               	
  7321                           	movf	indf,w
  7322  0BCA  0800               	movwf	((??_CONVERT_Data_11Byte+0)+0+3)
  7323  0BCB  00AB               	incf	(??_CONVERT_Data_11Byte+0)+0,f
  7324  0BCC  0AA8               	movf	((??_CONVERT_Data_11Byte+0)+0+1),w
  7325  0BCD  0829               	movwf	fsr0
  7326  0BCE  0084               	bcf	status, 7	;select IRP bank0
  7327  0BCF  1383               	
  7328                           	movf	((??_CONVERT_Data_11Byte+0)+0+3),w
  7329  0BD0  082B               	movwf	indf
  7330  0BD1  0080               	incf	((??_CONVERT_Data_11Byte+0)+0+1),f
  7331  0BD2  0AA9               	decfsz	((??_CONVERT_Data_11Byte+0)+0+2),f
  7332  0BD3  0BAA               	goto	u216_20
  7333  0BD4  2BC7               	
  7334                           	line	162
  7335                           ;main.c: 162:     unsigned char txt[11] = "";
  7336                           	movlw	(CONVERT_Data_11Byte@txt)&0ffh
  7337  0BD5  302C               	movwf	fsr0
  7338  0BD6  0084               	movlw	low(CONVERT_Data_11Byte@F1514)
  7339  0BD7  3090               	movwf	(??_CONVERT_Data_11Byte+0)+0
  7340  0BD8  00A8               	movf	fsr0,w
  7341  0BD9  0804               	movwf	((??_CONVERT_Data_11Byte+0)+0+1)
  7342  0BDA  00A9               	movlw	11
  7343  0BDB  300B               	movwf	((??_CONVERT_Data_11Byte+0)+0+2)
  7344  0BDC  00AA               u217_20:
  7345  0BDD                     	movf	(??_CONVERT_Data_11Byte+0)+0,w
  7346  0BDD  0828               	movwf	fsr0
  7347  0BDE  0084               	bsf	status, 7	;select IRP bank3
  7348  0BDF  1783               	
  7349                           	movf	indf,w
  7350  0BE0  0800               	movwf	((??_CONVERT_Data_11Byte+0)+0+3)
  7351  0BE1  00AB               	incf	(??_CONVERT_Data_11Byte+0)+0,f
  7352  0BE2  0AA8               	movf	((??_CONVERT_Data_11Byte+0)+0+1),w
  7353  0BE3  0829               	movwf	fsr0
  7354  0BE4  0084               	bcf	status, 7	;select IRP bank0
  7355  0BE5  1383               	
  7356                           	movf	((??_CONVERT_Data_11Byte+0)+0+3),w
  7357  0BE6  082B               	movwf	indf
  7358  0BE7  0080               	incf	((??_CONVERT_Data_11Byte+0)+0+1),f
  7359  0BE8  0AA9               	decfsz	((??_CONVERT_Data_11Byte+0)+0+2),f
  7360  0BE9  0BAA               	goto	u217_20
  7361  0BEA  2BDD               	
  7362                           	line	164
  7363                           	
  7364                           i1l2524:	
  7365  0BEB                     ;main.c: 163:     unsigned int crc;;main.c: 164:     unsigned char output[2] = "";
  7366                           	movf	(CONVERT_Data_11Byte@F1517+1),w
  7367  0BEB  086A               	movwf	(CONVERT_Data_11Byte@output+1)
  7368  0BEC  00C4               	movf	(CONVERT_Data_11Byte@F1517),w
  7369  0BED  0869               	movwf	(CONVERT_Data_11Byte@output)
  7370  0BEE  00C3               	line	165
  7371                           	
  7372                           i1l2526:	
  7373  0BEF                     ;main.c: 165:     reflect_byte(input, input_ref, 11);
  7374                           	movf	(CONVERT_Data_11Byte@input),w
  7375  0BEF  0842               	movwf	(reflect_byte@byte)
  7376  0BF0  00F0               	movlw	(0x1)
  7377  0BF1  3001               	movwf	(reflect_byte@byte+1)
  7378  0BF2  00F1               	movlw	(low(CONVERT_Data_11Byte@input_ref|((0x0)<<8)))&0ffh
  7379  0BF3  3037               	movwf	(??_CONVERT_Data_11Byte+0)+0
  7380  0BF4  00A8               	movf	(??_CONVERT_Data_11Byte+0)+0,w
  7381  0BF5  0828               	movwf	(reflect_byte@byte_ref)
  7382  0BF6  00F2               	movlw	low(0Bh)
  7383  0BF7  300B               	movwf	(??_CONVERT_Data_11Byte+1)+0
  7384  0BF8  00A9               	movf	(??_CONVERT_Data_11Byte+1)+0,w
  7385  0BF9  0829               	movwf	(reflect_byte@index)
  7386  0BFA  00F3               	fcall	_reflect_byte
  7387  0BFB  120A  158A  223A  120A  158A  	line	169
  7388                           	
  7389                           i1l2528:	
  7390  0C00                     ;main.c: 169:     for (unsigned int i = 0; i < 11; i++) {
  7391                           	bcf	status, 5	;RP0=0, select bank0
  7392  0C00  1283               	bcf	status, 6	;RP1=0, select bank0
  7393  0C01  1303               	clrf	(CONVERT_Data_11Byte@i)
  7394  0C02  01C7               	clrf	(CONVERT_Data_11Byte@i+1)
  7395  0C03  01C8               	
  7396                           i1l2530:	
  7397  0C04                     	movlw	0
  7398  0C04  3000               	subwf	(CONVERT_Data_11Byte@i+1),w
  7399  0C05  0248               	movlw	0Bh
  7400  0C06  300B               	skipnz
  7401  0C07  1903               	subwf	(CONVERT_Data_11Byte@i),w
  7402  0C08  0247               	skipc
  7403  0C09  1C03               	goto	u218_21
  7404  0C0A  2C0C               	goto	u218_20
  7405  0C0B  2C0D               u218_21:
  7406  0C0C                     	goto	i1l2534
  7407  0C0C  2C0F               u218_20:
  7408  0C0D                     	goto	i1l2540
  7409  0C0D  2C2C               	
  7410                           i1l2532:	
  7411  0C0E                     	goto	i1l2540
  7412  0C0E  2C2C               	
  7413                           i1l202:	
  7414  0C0F                     	line	170
  7415                           	
  7416                           i1l2534:	
  7417  0C0F                     ;main.c: 170:         txt[i] = input_ref[11 - 1 - i];
  7418                           	decf	(CONVERT_Data_11Byte@i),w
  7419  0C0F  0347               	xorlw	0ffh
  7420  0C10  3AFF               	addlw	0Ah
  7421  0C11  3E0A               	addlw	low(CONVERT_Data_11Byte@input_ref|((0x0)<<8))&0ffh
  7422  0C12  3E37               	movwf	fsr0
  7423  0C13  0084               	bcf	status, 7	;select IRP bank0
  7424  0C14  1383               	movf	indf,w
  7425  0C15  0800               	movwf	(??_CONVERT_Data_11Byte+0)+0
  7426  0C16  00A8               	movf	(CONVERT_Data_11Byte@i),w
  7427  0C17  0847               	addlw	low(CONVERT_Data_11Byte@txt|((0x0)<<8))&0ffh
  7428  0C18  3E2C               	movwf	fsr0
  7429  0C19  0084               	movf	(??_CONVERT_Data_11Byte+0)+0,w
  7430  0C1A  0828               	movwf	indf
  7431  0C1B  0080               	line	171
  7432                           	
  7433                           i1l2536:	
  7434  0C1C                     ;main.c: 171:     }
  7435                           	movlw	01h
  7436  0C1C  3001               	addwf	(CONVERT_Data_11Byte@i),f
  7437  0C1D  07C7               	skipnc
  7438  0C1E  1803               	incf	(CONVERT_Data_11Byte@i+1),f
  7439  0C1F  0AC8               	movlw	0
  7440  0C20  3000               	addwf	(CONVERT_Data_11Byte@i+1),f
  7441  0C21  07C8               	
  7442                           i1l2538:	
  7443  0C22                     	movlw	0
  7444  0C22  3000               	subwf	(CONVERT_Data_11Byte@i+1),w
  7445  0C23  0248               	movlw	0Bh
  7446  0C24  300B               	skipnz
  7447  0C25  1903               	subwf	(CONVERT_Data_11Byte@i),w
  7448  0C26  0247               	skipc
  7449  0C27  1C03               	goto	u219_21
  7450  0C28  2C2A               	goto	u219_20
  7451  0C29  2C2B               u219_21:
  7452  0C2A                     	goto	i1l2534
  7453  0C2A  2C0F               u219_20:
  7454  0C2B                     	goto	i1l2540
  7455  0C2B  2C2C               	
  7456                           i1l203:	
  7457  0C2C                     	line	173
  7458                           	
  7459                           i1l2540:	
  7460  0C2C                     ;main.c: 173:     crc = crc16(txt, 11);
  7461                           	movlw	0Bh
  7462  0C2C  300B               	movwf	(crc16@dataLen)
  7463  0C2D  00F0               	movlw	0
  7464  0C2E  3000               	movwf	((crc16@dataLen))+1
  7465  0C2F  00F1               	movlw	(low(CONVERT_Data_11Byte@txt|((0x0)<<8)))&0ffh
  7466  0C30  302C               	fcall	_crc16
  7467  0C31  120A  158A  24FC  120A  158A  	movf	(1+(?_crc16)),w
  7468  0C36  0871               	bcf	status, 5	;RP0=0, select bank0
  7469  0C37  1283               	bcf	status, 6	;RP1=0, select bank0
  7470  0C38  1303               	movwf	(CONVERT_Data_11Byte@crc+1)
  7471  0C39  00C6               	movf	(0+(?_crc16)),w
  7472  0C3A  0870               	movwf	(CONVERT_Data_11Byte@crc)
  7473  0C3B  00C5               	line	174
  7474                           	
  7475                           i1l2542:	
  7476  0C3C                     ;main.c: 174:     output[0] = crc & 0xff;
  7477                           	movf	(CONVERT_Data_11Byte@crc),w
  7478  0C3C  0845               	movwf	(??_CONVERT_Data_11Byte+0)+0
  7479  0C3D  00A8               	movf	(??_CONVERT_Data_11Byte+0)+0,w
  7480  0C3E  0828               	movwf	(CONVERT_Data_11Byte@output)
  7481  0C3F  00C3               	line	175
  7482                           	
  7483                           i1l2544:	
  7484  0C40                     ;main.c: 175:     output[1] = (crc >> 8)&0xff;
  7485                           	movf	(CONVERT_Data_11Byte@crc+1),w
  7486  0C40  0846               	movwf	(??_CONVERT_Data_11Byte+0)+0
  7487  0C41  00A8               	movf	(??_CONVERT_Data_11Byte+0)+0,w
  7488  0C42  0828               	movwf	0+(CONVERT_Data_11Byte@output)+01h
  7489  0C43  00C4               	line	179
  7490                           	
  7491                           i1l2546:	
  7492  0C44                     ;main.c: 179:     reflect_byte(output, output_ref, 2);
  7493                           	movlw	(low(CONVERT_Data_11Byte@output|((0x0)<<8))&0ffh)
  7494  0C44  3043               	movwf	(reflect_byte@byte)
  7495  0C45  00F0               	movlw	(0x0)
  7496  0C46  3000               	movwf	(reflect_byte@byte+1)
  7497  0C47  00F1               	movf	(CONVERT_Data_11Byte@output_ref),w
  7498  0C48  087C               	movwf	(??_CONVERT_Data_11Byte+0)+0
  7499  0C49  00A8               	movf	(??_CONVERT_Data_11Byte+0)+0,w
  7500  0C4A  0828               	movwf	(reflect_byte@byte_ref)
  7501  0C4B  00F2               	movlw	low(02h)
  7502  0C4C  3002               	movwf	(??_CONVERT_Data_11Byte+1)+0
  7503  0C4D  00A9               	movf	(??_CONVERT_Data_11Byte+1)+0,w
  7504  0C4E  0829               	movwf	(reflect_byte@index)
  7505  0C4F  00F3               	fcall	_reflect_byte
  7506  0C50  120A  158A  223A  120A  158A  	line	183
  7507                           	
  7508                           i1l204:	
  7509  0C55                     	return
  7510  0C55  0008               	opt stack 0
  7511                           GLOBAL	__end_of_CONVERT_Data_11Byte
  7512                           	__end_of_CONVERT_Data_11Byte:
  7513  0C56                     	signat	_CONVERT_Data_11Byte,8313
  7514                           	global	_reflect_byte
  7515                           
  7516 ;; *************** function _reflect_byte *****************
  7517 ;; Defined at:
  7518 ;;		line 3 in file "./reflect_byte.h"
  7519 ;; Parameters:    Size  Location     Type
  7520 ;;  byte            2    0[COMMON] PTR unsigned char 
  7521 ;;		 -> data_response_8byte(9), data_response_7byte(8), data_response_13byte(14), ISR@data(8), 
  7522 ;;		 -> CONVERT_Data_11Byte@output(2), CONVERT_Data_6Byte@output(2), CONVERT_Data_5Byte@output(2), 
  7523 ;;  byte_ref        1    2[COMMON] PTR unsigned char 
  7524 ;;		 -> ISR@crc_code_response(2), ISR@crc_code_read(2), CONVERT_Data_11Byte@input_ref(11), CONVERT_Data_6Byte@input_ref(
       6), 
  7525 ;;		 -> CONVERT_Data_5Byte@input_ref(5), 
  7526 ;;  index           1    3[COMMON] unsigned char 
  7527 ;; Auto vars:     Size  Location     Type
  7528 ;;  i               1   10[COMMON] unsigned char 
  7529 ;;  j               1    9[COMMON] unsigned char 
  7530 ;;  temp            1    8[COMMON] unsigned char 
  7531 ;; Return value:  Size  Location     Type
  7532 ;;                  1    wreg      unsigned char 
  7533 ;; Registers used:
  7534 ;;		wreg, fsr0l, fsr0h, status,2, status,0
  7535 ;; Tracked objects:
  7536 ;;		On entry : 0/0
  7537 ;;		On exit  : 0/0
  7538 ;;		Unchanged: 0/0
  7539 ;; Data sizes:     COMMON   BANK0   BANK1   BANK3   BANK2
  7540 ;;      Params:         4       0       0       0       0
  7541 ;;      Locals:         3       0       0       0       0
  7542 ;;      Temps:          4       0       0       0       0
  7543 ;;      Totals:        11       0       0       0       0
  7544 ;;Total ram usage:       11 bytes
  7545 ;; Hardware stack levels used:    1
  7546 ;; This function calls:
  7547 ;;		Nothing
  7548 ;; This function is called by:
  7549 ;;		_CONVERT_Data_5Byte
  7550 ;;		_CONVERT_Data_6Byte
  7551 ;;		_CONVERT_Data_11Byte
  7552 ;; This function uses a non-reentrant model
  7553 ;;
  7554                           psect	text16,local,class=CODE,delta=2,merge=1,group=0
  7555                           	file	"./reflect_byte.h"
  7556                           	line	3
  7557                           global __ptext16
  7558                           __ptext16:	;psect for function _reflect_byte
  7559  0A3A                     psect	text16
  7560                           	file	"./reflect_byte.h"
  7561                           	line	3
  7562                           	global	__size_of_reflect_byte
  7563                           	__size_of_reflect_byte	equ	__end_of_reflect_byte-_reflect_byte
  7564  0056                     	
  7565                           _reflect_byte:	
  7566  0A3A                     ;incstack = 0
  7567                           	opt	stack 3
  7568                           ; Regs used in _reflect_byte: [wreg-fsr0h+status,2+status,0]
  7569                           	line	5
  7570                           	
  7571                           i1l2438:	
  7572  0A3A                     ;./reflect_byte.h: 4:     unsigned char i, j, temp;;./reflect_byte.h: 5:     for (j = 0;
                                  j < index; j++) {
  7573                           	clrf	(reflect_byte@j)
  7574  0A3A  01F9               	goto	i1l2454
  7575  0A3B  2A88               	
  7576                           i1l146:	
  7577  0A3C                     	line	6
  7578                           	
  7579                           i1l2440:	
  7580  0A3C                     ;./reflect_byte.h: 6:         for (i = 0; i < 8; i++) {
  7581                           	clrf	(reflect_byte@i)
  7582  0A3C  01FA               	
  7583                           i1l2442:	
  7584  0A3D                     	movlw	low(08h)
  7585  0A3D  3008               	subwf	(reflect_byte@i),w
  7586  0A3E  027A               	skipc
  7587  0A3F  1C03               	goto	u205_21
  7588  0A40  2A42               	goto	u205_20
  7589  0A41  2A43               u205_21:
  7590  0A42                     	goto	i1l2446
  7591  0A42  2A45               u205_20:
  7592  0A43                     	goto	i1l2452
  7593  0A43  2A83               	
  7594                           i1l2444:	
  7595  0A44                     	goto	i1l2452
  7596  0A44  2A83               	
  7597                           i1l147:	
  7598  0A45                     	line	7
  7599                           	
  7600                           i1l2446:	
  7601  0A45                     ;./reflect_byte.h: 7:             temp = byte[j] >> i;
  7602                           	movf	(reflect_byte@j),w
  7603  0A45  0879               	addwf	(reflect_byte@byte),w
  7604  0A46  0770               	movwf	(??_reflect_byte+0)+0
  7605  0A47  00F4               	movf	(reflect_byte@byte+1),w
  7606  0A48  0871               	skipnc
  7607  0A49  1803               	addlw	1
  7608  0A4A  3E01               	movwf	1+((??_reflect_byte+0)+0)
  7609  0A4B  00F5               	movf	0+(??_reflect_byte+0)+0,w
  7610  0A4C  0874               	movwf	fsr0
  7611  0A4D  0084               	bsf	status,7
  7612  0A4E  1783               	btfss	1+(??_reflect_byte+0)+0,0
  7613  0A4F  1C75               	bcf	status,7
  7614  0A50  1383               	movf	indf,w
  7615  0A51  0800               	movwf	(??_reflect_byte+2)+0
  7616  0A52  00F6               	incf	(reflect_byte@i),w
  7617  0A53  0A7A               	goto	u206_24
  7618  0A54  2A57               u206_25:
  7619  0A55                     	clrc
  7620  0A55  1003               	rrf	(??_reflect_byte+2)+0,f
  7621  0A56  0CF6               u206_24:
  7622  0A57                     	addlw	-1
  7623  0A57  3EFF               	skipz
  7624  0A58  1D03               	goto	u206_25
  7625  0A59  2A55               	movf	0+(??_reflect_byte+2)+0,w
  7626  0A5A  0876               	movwf	(??_reflect_byte+3)+0
  7627  0A5B  00F7               	movf	(??_reflect_byte+3)+0,w
  7628  0A5C  0877               	movwf	(reflect_byte@temp)
  7629  0A5D  00F8               	line	8
  7630                           ;./reflect_byte.h: 8:             byte_ref[index - 1 - j] += (temp & 0x01) << (7 - i);
  7631                           	movf	(reflect_byte@temp),w
  7632  0A5E  0878               	andlw	01h
  7633  0A5F  3901               	movwf	(??_reflect_byte+0)+0
  7634  0A60  00F4               	decf	(reflect_byte@i),w
  7635  0A61  037A               	xorlw	0ffh
  7636  0A62  3AFF               	addlw	07h
  7637  0A63  3E07               	addlw	1
  7638  0A64  3E01               	goto	u207_24
  7639  0A65  2A68               u207_25:
  7640  0A66                     	clrc
  7641  0A66  1003               	rlf	(??_reflect_byte+0)+0,f
  7642  0A67  0DF4               u207_24:
  7643  0A68                     	addlw	-1
  7644  0A68  3EFF               	skipz
  7645  0A69  1D03               	goto	u207_25
  7646  0A6A  2A66               	movf	0+(??_reflect_byte+0)+0,w
  7647  0A6B  0874               	movwf	(??_reflect_byte+1)+0
  7648  0A6C  00F5               	decf	(reflect_byte@j),w
  7649  0A6D  0379               	xorlw	0ffh
  7650  0A6E  3AFF               	addwf	(reflect_byte@index),w
  7651  0A6F  0773               	addlw	-1
  7652  0A70  3EFF               	addwf	(reflect_byte@byte_ref),w
  7653  0A71  0772               	movwf	(??_reflect_byte+2)+0
  7654  0A72  00F6               	movf	0+(??_reflect_byte+2)+0,w
  7655  0A73  0876               	movwf	fsr0
  7656  0A74  0084               	movf	(??_reflect_byte+1)+0,w
  7657  0A75  0875               	bcf	status, 7	;select IRP bank0
  7658  0A76  1383               	addwf	indf,f
  7659  0A77  0780               	line	10
  7660                           	
  7661                           i1l2448:	
  7662  0A78                     ;./reflect_byte.h: 10:         }
  7663                           	movlw	low(01h)
  7664  0A78  3001               	movwf	(??_reflect_byte+0)+0
  7665  0A79  00F4               	movf	(??_reflect_byte+0)+0,w
  7666  0A7A  0874               	addwf	(reflect_byte@i),f
  7667  0A7B  07FA               	
  7668                           i1l2450:	
  7669  0A7C                     	movlw	low(08h)
  7670  0A7C  3008               	subwf	(reflect_byte@i),w
  7671  0A7D  027A               	skipc
  7672  0A7E  1C03               	goto	u208_21
  7673  0A7F  2A81               	goto	u208_20
  7674  0A80  2A82               u208_21:
  7675  0A81                     	goto	i1l2446
  7676  0A81  2A45               u208_20:
  7677  0A82                     	goto	i1l2452
  7678  0A82  2A83               	
  7679                           i1l148:	
  7680  0A83                     	line	11
  7681                           	
  7682                           i1l2452:	
  7683  0A83                     ;./reflect_byte.h: 11:     }
  7684                           	movlw	low(01h)
  7685  0A83  3001               	movwf	(??_reflect_byte+0)+0
  7686  0A84  00F4               	movf	(??_reflect_byte+0)+0,w
  7687  0A85  0874               	addwf	(reflect_byte@j),f
  7688  0A86  07F9               	goto	i1l2454
  7689  0A87  2A88               	
  7690                           i1l145:	
  7691  0A88                     	
  7692                           i1l2454:	
  7693  0A88                     	movf	(reflect_byte@index),w
  7694  0A88  0873               	subwf	(reflect_byte@j),w
  7695  0A89  0279               	skipc
  7696  0A8A  1C03               	goto	u209_21
  7697  0A8B  2A8D               	goto	u209_20
  7698  0A8C  2A8E               u209_21:
  7699  0A8D                     	goto	i1l2440
  7700  0A8D  2A3C               u209_20:
  7701  0A8E                     	goto	i1l150
  7702  0A8E  2A8F               	
  7703                           i1l149:	
  7704  0A8F                     	line	13
  7705                           	
  7706                           i1l150:	
  7707  0A8F                     	return
  7708  0A8F  0008               	opt stack 0
  7709                           GLOBAL	__end_of_reflect_byte
  7710                           	__end_of_reflect_byte:
  7711  0A90                     	signat	_reflect_byte,12409
  7712                           	global	_crc16
  7713                           
  7714 ;; *************** function _crc16 *****************
  7715 ;; Defined at:
  7716 ;;		line 167 in file "./crcLIBhex.h"
  7717 ;; Parameters:    Size  Location     Type
  7718 ;;  crcData         1    wreg     PTR unsigned char 
  7719 ;;		 -> CONVERT_Data_11Byte@txt(11), CONVERT_Data_6Byte@txt(6), CONVERT_Data_5Byte@txt(5), 
  7720 ;;  dataLen         2    0[COMMON] unsigned int 
  7721 ;; Auto vars:     Size  Location     Type
  7722 ;;  crcData         1    2[BANK0 ] PTR unsigned char 
  7723 ;;		 -> CONVERT_Data_11Byte@txt(11), CONVERT_Data_6Byte@txt(6), CONVERT_Data_5Byte@txt(5), 
  7724 ;;  crc             4    4[BANK0 ] unsigned long 
  7725 ;;  iByte           2    0[BANK0 ] unsigned int 
  7726 ;;  i               1    3[BANK0 ] unsigned char 
  7727 ;; Return value:  Size  Location     Type
  7728 ;;                  2    0[COMMON] unsigned int 
  7729 ;; Registers used:
  7730 ;;		wreg, fsr0l, fsr0h, status,2, status,0, btemp+1, pclath
  7731 ;; Tracked objects:
  7732 ;;		On entry : 0/0
  7733 ;;		On exit  : 0/0
  7734 ;;		Unchanged: 0/0
  7735 ;; Data sizes:     COMMON   BANK0   BANK1   BANK3   BANK2
  7736 ;;      Params:         2       0       0       0       0
  7737 ;;      Locals:         0       8       0       0       0
  7738 ;;      Temps:         10       0       0       0       0
  7739 ;;      Totals:        12       8       0       0       0
  7740 ;;Total ram usage:       20 bytes
  7741 ;; Hardware stack levels used:    2
  7742 ;; This function calls:
  7743 ;;		Nothing
  7744 ;; This function is called by:
  7745 ;;		_CONVERT_Data_5Byte
  7746 ;;		_CONVERT_Data_6Byte
  7747 ;;		_CONVERT_Data_11Byte
  7748 ;; This function uses a non-reentrant model
  7749 ;;
  7750                           psect	text17,local,class=CODE,delta=2,merge=1,group=0
  7751                           	file	"./crcLIBhex.h"
  7752                           	line	167
  7753                           global __ptext17
  7754                           __ptext17:	;psect for function _crc16
  7755  0CFC                     psect	text17
  7756                           	file	"./crcLIBhex.h"
  7757                           	line	167
  7758                           	global	__size_of_crc16
  7759                           	__size_of_crc16	equ	__end_of_crc16-_crc16
  7760  00CE                     	
  7761                           _crc16:	
  7762  0CFC                     ;incstack = 0
  7763                           	opt	stack 2
  7764                           ; Regs used in _crc16: [wreg-fsr0h+status,2+status,0+btemp+1+pclath]
  7765                           ;crc16@crcData stored from wreg
  7766                           	bcf	status, 5	;RP0=0, select bank0
  7767  0CFC  1283               	bcf	status, 6	;RP1=0, select bank0
  7768  0CFD  1303               	movwf	(crc16@crcData)
  7769  0CFE  00A2               	line	171
  7770                           	
  7771                           i1l1706:	
  7772  0CFF                     ;./crcLIBhex.h: 167: unsigned int crc16 (char *crcData, unsigned int dataLen);./crcLIBhe
                                 x.h: 168: {;./crcLIBhex.h: 169:       unsigned char i;;./crcLIBhex.h: 170:       unsigne
                                 d int iByte;;./crcLIBhex.h: 171:       unsigned long crc = CRC16_INIT;
  7773                           	movlw	low(_CRC16_INIT|8000h)
  7774  0CFF  3016               	movwf	fsr0
  7775  0D00  0084               	movlw	high(_CRC16_INIT|8000h)
  7776  0D01  308A               	movwf	btemp+1
  7777  0D02  00FF               	fcall	stringtab
  7778  0D03  120A  118A  2600  120A  158A  	movwf	(??_crc16+0)+0
  7779  0D08  00F2               	fcall	stringtab
  7780  0D09  120A  118A  2600  120A  158A  	movwf	(??_crc16+0)+0+1
  7781  0D0E  00F3               	movf	0+(??_crc16+0)+0,w
  7782  0D0F  0872               	movwf	(crc16@crc)
  7783  0D10  00A4               	movf	1+(??_crc16+0)+0,w
  7784  0D11  0873               	movwf	((crc16@crc))+1
  7785  0D12  00A5               	clrf	2+((crc16@crc))
  7786  0D13  01A6               	clrf	3+((crc16@crc))
  7787  0D14  01A7               	line	173
  7788                           	
  7789                           i1l1708:	
  7790  0D15                     ;./crcLIBhex.h: 173:       if (dataLen == 0)
  7791                           	movf	((crc16@dataLen)),w
  7792  0D15  0870               iorwf	((crc16@dataLen+1)),w
  7793  0D16  0471               	btfss	status,2
  7794  0D17  1D03               	goto	u113_21
  7795  0D18  2D1A               	goto	u113_20
  7796  0D19  2D1B               u113_21:
  7797  0D1A                     	goto	i1l1714
  7798  0D1A  2D22               u113_20:
  7799  0D1B                     	line	174
  7800                           	
  7801                           i1l1710:	
  7802  0D1B                     ;./crcLIBhex.h: 174:             return (~crc);
  7803                           	comf	(crc16@crc),w
  7804  0D1B  0924               	movwf	(?_crc16)
  7805  0D1C  00F0               	comf	(crc16@crc+1),w
  7806  0D1D  0925               	movwf	1+(?_crc16)
  7807  0D1E  00F1               	goto	i1l112
  7808  0D1F  2DC9               	
  7809                           i1l1712:	
  7810  0D20                     	goto	i1l112
  7811  0D20  2DC9               	
  7812                           i1l111:	
  7813  0D21                     	goto	i1l1714
  7814  0D21  2D22               	line	175
  7815                           ;./crcLIBhex.h: 175:       do
  7816                           	
  7817                           i1l113:	
  7818  0D22                     	line	177
  7819                           	
  7820                           i1l1714:	
  7821  0D22                     ;./crcLIBhex.h: 176:       {;./crcLIBhex.h: 177:             for (i=0, iByte=((unsigned 
                                 int)0xff & *crcData++) <<8;
  7822                           	clrf	(crc16@i)
  7823  0D22  01A3               	
  7824                           i1l1716:	
  7825  0D23                     	movf	(crc16@crcData),w
  7826  0D23  0822               	movwf	fsr0
  7827  0D24  0084               	bcf	status, 7	;select IRP bank0
  7828  0D25  1383               	movf	indf,w
  7829  0D26  0800               	movwf	(??_crc16+0)+0
  7830  0D27  00F2               	clrf	(??_crc16+0)+0+1
  7831  0D28  01F3               	movf	(??_crc16+0)+0,w
  7832  0D29  0872               	movwf	(??_crc16+0)+1
  7833  0D2A  00F3               	clrf	(??_crc16+0)+0
  7834  0D2B  01F2               	movf	0+(??_crc16+0)+0,w
  7835  0D2C  0872               	movwf	(crc16@iByte)
  7836  0D2D  00A0               	movf	1+(??_crc16+0)+0,w
  7837  0D2E  0873               	movwf	(crc16@iByte+1)
  7838  0D2F  00A1               	
  7839                           i1l1718:	
  7840  0D30                     	movlw	low(01h)
  7841  0D30  3001               	movwf	(??_crc16+0)+0
  7842  0D31  00F2               	movf	(??_crc16+0)+0,w
  7843  0D32  0872               	addwf	(crc16@crcData),f
  7844  0D33  07A2               	
  7845                           i1l1720:	
  7846  0D34                     	movlw	low(08h)
  7847  0D34  3008               	subwf	(crc16@i),w
  7848  0D35  0223               	skipc
  7849  0D36  1C03               	goto	u114_21
  7850  0D37  2D39               	goto	u114_20
  7851  0D38  2D3A               u114_21:
  7852  0D39                     	goto	i1l1724
  7853  0D39  2D3C               u114_20:
  7854  0D3A                     	goto	i1l1734
  7855  0D3A  2DB7               	
  7856                           i1l1722:	
  7857  0D3B                     	goto	i1l1734
  7858  0D3B  2DB7               	
  7859                           i1l114:	
  7860  0D3C                     	line	181
  7861                           	
  7862                           i1l1724:	
  7863  0D3C                     ;./crcLIBhex.h: 180:             {;./crcLIBhex.h: 181:                   if ((crc & 0x80
                                 00) ^ (iByte & 0x8000))
  7864                           	movlw	0
  7865  0D3C  3000               	andwf	(crc16@iByte),w
  7866  0D3D  0520               	movwf	(??_crc16+0)+0
  7867  0D3E  00F2               	movlw	080h
  7868  0D3F  3080               	andwf	(crc16@iByte+1),w
  7869  0D40  0521               	movwf	1+(??_crc16+0)+0
  7870  0D41  00F3               	movf	0+(??_crc16+0)+0,w
  7871  0D42  0872               	movwf	((??_crc16+2)+0)
  7872  0D43  00F4               	movf	1+(??_crc16+0)+0,w
  7873  0D44  0873               	movwf	((??_crc16+2)+0+1)
  7874  0D45  00F5               	clrf	((??_crc16+2)+0+2)
  7875  0D46  01F6               	clrf	((??_crc16+2)+0+3)
  7876  0D47  01F7               	movlw	0
  7877  0D48  3000               	andwf	(crc16@crc),w
  7878  0D49  0524               	movwf	(??_crc16+6)+0
  7879  0D4A  00F8               	movlw	080h
  7880  0D4B  3080               	andwf	(crc16@crc+1),w
  7881  0D4C  0525               	movwf	((??_crc16+6)+0+1)
  7882  0D4D  00F9               	movlw	0
  7883  0D4E  3000               	andwf	(crc16@crc+2),w
  7884  0D4F  0526               	movwf	((??_crc16+6)+0+2)
  7885  0D50  00FA               	movlw	0
  7886  0D51  3000               	andwf	(crc16@crc+3),w
  7887  0D52  0527               	movwf	((??_crc16+6)+0+3)
  7888  0D53  00FB               	movf	0+(??_crc16+6)+0,w
  7889  0D54  0878               	xorwf	(??_crc16+2)+0,f
  7890  0D55  06F4               	movf	1+(??_crc16+6)+0,w
  7891  0D56  0879               	xorwf	(??_crc16+2)+1,f
  7892  0D57  06F5               	movf	2+(??_crc16+6)+0,w
  7893  0D58  087A               	xorwf	(??_crc16+2)+2,f
  7894  0D59  06F6               	movf	3+(??_crc16+6)+0,w
  7895  0D5A  087B               	xorwf	(??_crc16+2)+3,f
  7896  0D5B  06F7               	movf	3+(??_crc16+2)+0,w
  7897  0D5C  0877               	iorwf	2+(??_crc16+2)+0,w
  7898  0D5D  0476               	iorwf	1+(??_crc16+2)+0,w
  7899  0D5E  0475               	iorwf	0+(??_crc16+2)+0,w
  7900  0D5F  0474               	skipnz
  7901  0D60  1903               	goto	u115_21
  7902  0D61  2D63               	goto	u115_20
  7903  0D62  2D64               u115_21:
  7904  0D63                     	goto	i1l1728
  7905  0D63  2D9C               u115_20:
  7906  0D64                     	line	182
  7907                           	
  7908                           i1l1726:	
  7909  0D64                     ;./crcLIBhex.h: 182:                         crc = (crc << 1) ^ CRC16_POLYNOMIAL;
  7910                           	movlw	low(_CRC16_POLYNOMIAL|8000h)
  7911  0D64  3018               	movwf	fsr0
  7912  0D65  0084               	movlw	high(_CRC16_POLYNOMIAL|8000h)
  7913  0D66  308A               	movwf	btemp+1
  7914  0D67  00FF               	fcall	stringtab
  7915  0D68  120A  118A  2600  120A  158A  	movwf	(??_crc16+0)+0
  7916  0D6D  00F2               	fcall	stringtab
  7917  0D6E  120A  118A  2600  120A  158A  	movwf	(??_crc16+0)+0+1
  7918  0D73  00F3               	movf	0+(??_crc16+0)+0,w
  7919  0D74  0872               	movwf	((??_crc16+2)+0)
  7920  0D75  00F4               	movf	1+(??_crc16+0)+0,w
  7921  0D76  0873               	movwf	((??_crc16+2)+0+1)
  7922  0D77  00F5               	clrf	((??_crc16+2)+0+2)
  7923  0D78  01F6               	clrf	((??_crc16+2)+0+3)
  7924  0D79  01F7               	movf	(crc16@crc),w
  7925  0D7A  0824               	movwf	(??_crc16+6)+0
  7926  0D7B  00F8               	movf	(crc16@crc+1),w
  7927  0D7C  0825               	movwf	((??_crc16+6)+0+1)
  7928  0D7D  00F9               	movf	(crc16@crc+2),w
  7929  0D7E  0826               	movwf	((??_crc16+6)+0+2)
  7930  0D7F  00FA               	movf	(crc16@crc+3),w
  7931  0D80  0827               	movwf	((??_crc16+6)+0+3)
  7932  0D81  00FB               	movlw	01h
  7933  0D82  3001               u116_25:
  7934  0D83                     	clrc
  7935  0D83  1003               	rlf	(??_crc16+6)+0,f
  7936  0D84  0DF8               	rlf	(??_crc16+6)+1,f
  7937  0D85  0DF9               	rlf	(??_crc16+6)+2,f
  7938  0D86  0DFA               	rlf	(??_crc16+6)+3,f
  7939  0D87  0DFB               u116_20:
  7940  0D88                     	addlw	-1
  7941  0D88  3EFF               	skipz
  7942  0D89  1D03               	goto	u116_25
  7943  0D8A  2D83               	movf	0+(??_crc16+6)+0,w
  7944  0D8B  0878               	xorwf	(??_crc16+2)+0,f
  7945  0D8C  06F4               	movf	1+(??_crc16+6)+0,w
  7946  0D8D  0879               	xorwf	(??_crc16+2)+1,f
  7947  0D8E  06F5               	movf	2+(??_crc16+6)+0,w
  7948  0D8F  087A               	xorwf	(??_crc16+2)+2,f
  7949  0D90  06F6               	movf	3+(??_crc16+6)+0,w
  7950  0D91  087B               	xorwf	(??_crc16+2)+3,f
  7951  0D92  06F7               	movf	3+(??_crc16+2)+0,w
  7952  0D93  0877               	movwf	(crc16@crc+3)
  7953  0D94  00A7               	movf	2+(??_crc16+2)+0,w
  7954  0D95  0876               	movwf	(crc16@crc+2)
  7955  0D96  00A6               	movf	1+(??_crc16+2)+0,w
  7956  0D97  0875               	movwf	(crc16@crc+1)
  7957  0D98  00A5               	movf	0+(??_crc16+2)+0,w
  7958  0D99  0874               	movwf	(crc16@crc)
  7959  0D9A  00A4               
  7960                           	goto	i1l117
  7961  0D9B  2DA5               	line	183
  7962                           ;./crcLIBhex.h: 183:                   else crc <<= 1;
  7963                           	
  7964                           i1l116:	
  7965  0D9C                     	
  7966                           i1l1728:	
  7967  0D9C                     	movlw	01h
  7968  0D9C  3001               	movwf	(??_crc16+0)+0
  7969  0D9D  00F2               u117_25:
  7970  0D9E                     	clrc
  7971  0D9E  1003               	rlf	(crc16@crc),f
  7972  0D9F  0DA4               	rlf	(crc16@crc+1),f
  7973  0DA0  0DA5               	rlf	(crc16@crc+2),f
  7974  0DA1  0DA6               	rlf	(crc16@crc+3),f
  7975  0DA2  0DA7               	decfsz	(??_crc16+0)+0
  7976  0DA3  0BF2               	goto	u117_25
  7977  0DA4  2D9E               	
  7978                           i1l117:	
  7979  0DA5                     	line	184
  7980                           ;./crcLIBhex.h: 184:             }
  7981                           	movlw	low(01h)
  7982  0DA5  3001               	movwf	(??_crc16+0)+0
  7983  0DA6  00F2               	movf	(??_crc16+0)+0,w
  7984  0DA7  0872               	addwf	(crc16@i),f
  7985  0DA8  07A3               	
  7986                           i1l1730:	
  7987  0DA9                     	movlw	01h
  7988  0DA9  3001               	
  7989                           u118_25:
  7990  0DAA                     	clrc
  7991  0DAA  1003               	rlf	(crc16@iByte),f
  7992  0DAB  0DA0               	rlf	(crc16@iByte+1),f
  7993  0DAC  0DA1               	addlw	-1
  7994  0DAD  3EFF               	skipz
  7995  0DAE  1D03               	goto	u118_25
  7996  0DAF  2DAA               	
  7997                           i1l1732:	
  7998  0DB0                     	movlw	low(08h)
  7999  0DB0  3008               	subwf	(crc16@i),w
  8000  0DB1  0223               	skipc
  8001  0DB2  1C03               	goto	u119_21
  8002  0DB3  2DB5               	goto	u119_20
  8003  0DB4  2DB6               u119_21:
  8004  0DB5                     	goto	i1l1724
  8005  0DB5  2D3C               u119_20:
  8006  0DB6                     	goto	i1l1734
  8007  0DB6  2DB7               	
  8008                           i1l115:	
  8009  0DB7                     	line	185
  8010                           	
  8011                           i1l1734:	
  8012  0DB7                     ;./crcLIBhex.h: 185:       } while (--dataLen);
  8013                           	movlw	01h
  8014  0DB7  3001               	subwf	(crc16@dataLen),f
  8015  0DB8  02F0               	movlw	0
  8016  0DB9  3000               	skipc
  8017  0DBA  1C03               	decf	(crc16@dataLen+1),f
  8018  0DBB  03F1               	subwf	(crc16@dataLen+1),f
  8019  0DBC  02F1               	movf	(((crc16@dataLen))),w
  8020  0DBD  0870               iorwf	(((crc16@dataLen+1))),w
  8021  0DBE  0471               	btfss	status,2
  8022  0DBF  1D03               	goto	u120_21
  8023  0DC0  2DC2               	goto	u120_20
  8024  0DC1  2DC3               u120_21:
  8025  0DC2                     	goto	i1l1714
  8026  0DC2  2D22               u120_20:
  8027  0DC3                     	goto	i1l1736
  8028  0DC3  2DC4               	
  8029                           i1l118:	
  8030  0DC4                     	line	187
  8031                           	
  8032                           i1l1736:	
  8033  0DC4                     ;./crcLIBhex.h: 187:       return (crc & 0xFFFF );
  8034                           	movf	(crc16@crc+1),w
  8035  0DC4  0825               	movwf	(?_crc16+1)
  8036  0DC5  00F1               	movf	(crc16@crc),w
  8037  0DC6  0824               	movwf	(?_crc16)
  8038  0DC7  00F0               	goto	i1l112
  8039  0DC8  2DC9               	
  8040                           i1l1738:	
  8041  0DC9                     	line	188
  8042                           	
  8043                           i1l112:	
  8044  0DC9                     	return
  8045  0DC9  0008               	opt stack 0
  8046                           GLOBAL	__end_of_crc16
  8047                           	__end_of_crc16:
  8048  0DCA                     	signat	_crc16,8314
  8049                           global	___latbits
  8050                           ___latbits	equ	2
  8051  0002                     	global	btemp
  8052                           	btemp set 07Eh
  8053  007E                     
  8054                           	DABS	1,126,2	;btemp
  8055                           	global	wtemp0
  8056                           	wtemp0 set btemp+0
  8057  007E                     	end


Data Sizes:
    Strings     0
    Constant    1036
    Data        31
    BSS         62
    Persistent  0
    Stack       0

Auto Spaces:
    Space          Size  Autos    Used
    COMMON           14     13      13
    BANK0            80     64      79
    BANK1            80     34      76
    BANK3            96      0      36
    BANK2            96      0       0

Pointer List with Targets:

    CONVERT_Data_11Byte@output_ref	PTR unsigned char  size(1) Largest target is 2
		 -> ISR@crc_code_response(BANK0[2]), 

    CONVERT_Data_11Byte@input	PTR unsigned char  size(1) Largest target is 14
		 -> data_response_13byte(BANK3[14]), 

    CONVERT_Data_6Byte@output_ref	PTR unsigned char  size(1) Largest target is 2
		 -> ISR@crc_code_response(BANK0[2]), ISR@crc_code_read(BANK0[2]), 

    CONVERT_Data_6Byte@input	PTR unsigned char  size(1) Largest target is 9
		 -> data_response_8byte(BANK0[9]), ISR@data(BANK0[8]), 

    CONVERT_Data_5Byte@output_ref	PTR unsigned char  size(1) Largest target is 2
		 -> ISR@crc_code_response(BANK0[2]), 

    CONVERT_Data_5Byte@input	PTR unsigned char  size(1) Largest target is 8
		 -> data_response_7byte(BANK1[8]), 

    reflect_byte@byte_ref	PTR unsigned char  size(1) Largest target is 11
		 -> ISR@crc_code_response(BANK0[2]), ISR@crc_code_read(BANK0[2]), CONVERT_Data_11Byte@input_ref(BANK0[11]), CONVERT_Data_6Byte@input_ref(BANK0[6]), 
		 -> CONVERT_Data_5Byte@input_ref(BANK0[5]), 

    reflect_byte@byte	PTR unsigned char  size(2) Largest target is 14
		 -> data_response_8byte(BANK0[9]), data_response_7byte(BANK1[8]), data_response_13byte(BANK3[14]), ISR@data(BANK0[8]), 
		 -> CONVERT_Data_11Byte@output(BANK0[2]), CONVERT_Data_6Byte@output(BANK0[2]), CONVERT_Data_5Byte@output(BANK0[2]), 

    crc16@crcData	PTR unsigned char  size(1) Largest target is 11
		 -> CONVERT_Data_11Byte@txt(BANK0[11]), CONVERT_Data_6Byte@txt(BANK0[6]), CONVERT_Data_5Byte@txt(BANK0[5]), 

    UART_Write_Text_Length@str	PTR unsigned char  size(2) Largest target is 14
		 -> data_response_8byte(BANK0[9]), data_response_7byte(BANK1[8]), data_response_13byte(BANK3[14]), 

    UART_Read_Text@Output	PTR unsigned char  size(1) Largest target is 8
		 -> ISR@data(BANK0[8]), 


Critical Paths under _main in COMMON

    None.

Critical Paths under _ISR in COMMON

    _ISR->_CONVERT_Data_11Byte
    _ISR->_CONVERT_Data_5Byte
    _ISR->_CONVERT_Data_6Byte
    _UART_Write_Text_Length->_UART_Write
    _CONVERT_Data_6Byte->_crc16
    _CONVERT_Data_5Byte->_crc16
    _CONVERT_Data_11Byte->_crc16

Critical Paths under _main in BANK0

    None.

Critical Paths under _ISR in BANK0

    _ISR->_CONVERT_Data_11Byte
    _CONVERT_Data_6Byte->_crc16
    _CONVERT_Data_5Byte->_crc16
    _CONVERT_Data_11Byte->_crc16

Critical Paths under _main in BANK1

    _main->_UART_Init
    _UART_Init->___aldiv

Critical Paths under _ISR in BANK1

    None.

Critical Paths under _main in BANK3

    None.

Critical Paths under _ISR in BANK3

    None.

Critical Paths under _main in BANK2

    None.

Critical Paths under _ISR in BANK2

    None.

Call Graph Tables:

 ---------------------------------------------------------------------------------
 (Depth) Function   	        Calls       Base Space   Used Autos Params    Refs
 ---------------------------------------------------------------------------------
 (0) _main                                                 1     1      0    4876
                                             33 BANK1      1     1      0
                       _EEPROM_Write
                          _UART_Init
                   _config_interrupt
 ---------------------------------------------------------------------------------
 (1) _config_interrupt                                     0     0      0       0
 ---------------------------------------------------------------------------------
 (1) _UART_Init                                           18    14      4     836
                                             15 BANK1     18    14      4
                            ___aldiv
 ---------------------------------------------------------------------------------
 (2) ___aldiv                                             15     7      8     604
                                              0 BANK1     15     7      8
 ---------------------------------------------------------------------------------
 (1) _EEPROM_Write                                         3     0      3    4040
                                              0 BANK1      3     0      3
 ---------------------------------------------------------------------------------
 Estimated maximum stack depth 2
 ---------------------------------------------------------------------------------
 (Depth) Function   	        Calls       Base Space   Used Autos Params    Refs
 ---------------------------------------------------------------------------------
 (3) _ISR                                                 23    23      0   16245
                                             41 BANK0     23    23      0
                _CONVERT_Data_11Byte
                 _CONVERT_Data_5Byte
                 _CONVERT_Data_6Byte
                        _EEPROM_Read
                     _UART_Read_Text
                      _UART_TX_Empty
             _UART_Write_Text_Length
                     i1_EEPROM_Write
 ---------------------------------------------------------------------------------
 (4) i1_EEPROM_Write                                       3     0      3     304
                                              0 COMMON     3     0      3
 ---------------------------------------------------------------------------------
 (4) _UART_Write_Text_Length                               6     2      4    1458
                                              1 COMMON     6     2      4
                         _UART_Write
 ---------------------------------------------------------------------------------
 (5) _UART_Write                                           1     1      0      22
                                              0 COMMON     1     1      0
 ---------------------------------------------------------------------------------
 (4) _UART_TX_Empty                                        0     0      0       0
 ---------------------------------------------------------------------------------
 (4) _UART_Read_Text                                       7     5      2     199
                                              0 COMMON     7     5      2
                          _UART_Read
 ---------------------------------------------------------------------------------
 (5) _UART_Read                                            0     0      0       0
 ---------------------------------------------------------------------------------
 (4) _EEPROM_Read                                          2     0      2     782
                                              0 COMMON     2     0      2
 ---------------------------------------------------------------------------------
 (4) _CONVERT_Data_6Byte                                  22    21      1    3500
                                             12 COMMON     1     0      1
                                              8 BANK0     21    21      0
                              _crc16
                       _reflect_byte
 ---------------------------------------------------------------------------------
 (4) _CONVERT_Data_5Byte                                  20    19      1    3248
                                             12 COMMON     1     0      1
                                              8 BANK0     19    19      0
                              _crc16
                       _reflect_byte
 ---------------------------------------------------------------------------------
 (4) _CONVERT_Data_11Byte                                 34    33      1    2870
                                             12 COMMON     1     0      1
                                              8 BANK0     33    33      0
                              _crc16
                       _reflect_byte
 ---------------------------------------------------------------------------------
 (5) _reflect_byte                                        11     7      4    1707
                                              0 COMMON    11     7      4
 ---------------------------------------------------------------------------------
 (6) _crc16                                               20    18      2     555
                                              0 COMMON    12    10      2
                                              0 BANK0      8     8      0
 ---------------------------------------------------------------------------------
 Estimated maximum stack depth 6
 ---------------------------------------------------------------------------------

 Call Graph Graphs:

 _main (ROOT)
   _EEPROM_Write
   _UART_Init
     ___aldiv
   _config_interrupt

 _ISR (ROOT)
   _CONVERT_Data_11Byte
     _crc16
     _reflect_byte
   _CONVERT_Data_5Byte
     _crc16
     _reflect_byte
   _CONVERT_Data_6Byte
     _crc16
     _reflect_byte
   _EEPROM_Read
   _UART_Read_Text
     _UART_Read
   _UART_TX_Empty
   _UART_Write_Text_Length
     _UART_Write
   i1_EEPROM_Write

 Address spaces:
Name               Size   Autos  Total    Cost      Usage
BANK3               60      0      24       9       37.5%
BITBANK3            60      0       0       8        0.0%
SFR3                 0      0       0       4        0.0%
BITSFR3              0      0       0       4        0.0%
BANK2               60      0       0      11        0.0%
BITBANK2            60      0       0      10        0.0%
SFR2                 0      0       0       5        0.0%
BITSFR2              0      0       0       5        0.0%
BANK1               50     22      4C       7       95.0%
BITBANK1            50      0       0       6        0.0%
SFR1                 0      0       0       2        0.0%
BITSFR1              0      0       0       2        0.0%
BANK0               50     40      4F       5       98.8%
BITBANK0            50      0       0       4        0.0%
SFR0                 0      0       0       1        0.0%
BITSFR0              0      0       0       1        0.0%
COMMON               E      D       D       1       92.9%
BITCOMMON            E      0       0       0        0.0%
CODE                 0      0       0       0        0.0%
DATA                 0      0      CC      12        0.0%
ABS                  0      0      CC       3        0.0%
NULL                 0      0       0       0        0.0%
STACK                0      0       0       2        0.0%
EEDATA             100      0       0       0        0.0%


Microchip Technology PIC Macro Assembler V2.00 build -1524193055 
Symbol Table                                                                                   Tue Mar 15 13:27:26 2022

                              pc 0002                      __CFG_CP$OFF 0000                               l35 0E9B  
                             l36 0EB6                               l37 0EB6                               fsr 0004  
                    __CFG_LVP$ON 0000                              l160 17D3                              l161 17D9  
                            l162 17DA                              l159 17D3                              l440 0CE1  
                            l441 0C9F                              l442 0C91                              l443 0CA4  
                            l444 0CA5                              l284 0FFC                              l445 0CD0  
                            l285 0FFC                              l446 0CE0                              l438 0C6A  
                            l286 0FFD                              l447 0CF2                              l439 0C7E  
                            l279 1765                              l287 0FFD                              l448 0CFB  
                   __CFG_CPD$OFF 0000                              _ISR 005A        CONVERT_Data_11Byte@output 0043  
                            fsr0 0004                              indf 0000                     __CFG_IESO$ON 0000  
           reflect_byte@byte_ref 0072                             ?_ISR 0070         CONVERT_Data_5Byte@output 0034  
                           ISR@i 005F                             l1800 0E2E                             l2336 0EB7  
                           l1810 0EA6                             l1802 0E37                             l1820 0EB1  
                           l1812 0EA7                             l1804 0E99                             l1822 0EB5  
                           l1814 0EAA                             l1806 0E9B                             l1760 0C59  
                           l1816 0EAD                             l1808 0EA4                             l1850 17BB  
                           l1770 0C86                             l1762 0C5D                             l1818 0EAE  
                           l1860 17D1                             l1852 17C7                             l1780 0CAE  
                           l1772 0C8E                             l1764 0C6E                             l1854 17CA  
                           l1782 0CC0                             l1774 0C91                             l1790 0CE1  
                           l1766 0C79                             l1758 0C56                             l1950 1760  
                           l1856 17CB                             l1792 0CE6                             l1784 0CCE  
                           l1776 0C9F                             l1768 0C7E                             l1952 1762  
                           l1858 17D0                             l1794 0CF2                             l1786 0CD0  
                           l1778 0CA5                             l1796 0CFB                             l1788 0CD9  
                           l1798 0DCA                             u1300 0CA3                             u1301 0CA2  
                           u1320 0CC0                             u1400 0E45                             u1321 0CBF  
                           u1410 0E66                             u1315 0CA7                             u1340 0CDF  
                           u1260 0C5D                             u1420 0E7B                             u1341 0CDE  
                           u1325 0CBC                             u1261 0C5C                             u1421 0E7C  
                           u1405 0E40                             u1350 0CE6                             u1270 0C6E  
                           u1430 0EA4                             u1422 0E81                             u1351 0CE5  
                           u1335 0CD1                             u1271 0C6D                             u1431 0EA3  
                           u1423 0E82                             u1415 0E61                             u1280 0C8E  
                           u1360 0DDA                             u1281 0C8D                             u1370 0DFB  
                           u1380 0E10                             u1381 0E11                             u1365 0DD5  
                           u1470 17D9                             u1390 0E37                             u1382 0E16  
                           u1471 17D8                             u1295 0C93                             u1391 0E36  
                           u1383 0E17                             u1375 0DF6                             i1l40 175F  
                           i1l50 17BA                             i1l60 17DF                             i1l61 17FF  
                           i1l53 178F                             i1l46 17B2                             i1l62 17FF  
                           i1l54 178F                             i1l47 17B3                             i1l55 1796  
                           i1l48 17B3                             i1l56 179A                             i1l80 05EC  
                           i1l49 17B8                             i1l59 17F4                             i1l77 05BF  
                           i1l78 05EB                             i1l79 05EC         ??_UART_Write_Text_Length 0075  
                   __CFG_WRT$OFF 0000                    __CFG_FCMEN$ON 0000                             _main 0EB7  
         CONVERT_Data_11Byte@crc 0045           CONVERT_Data_11Byte@txt 002C                             btemp 007E  
                  __CFG_BOREN$ON 0000                             start 0012                    __CFG_MCLRE$ON 0000  
                          ??_ISR 0049         CONVERT_Data_6Byte@output 0036             __end_of_EEPROM_Write 17DB  
                __end_of___aldiv 0CFC                            ?_main 0070                            _EEADR 010D  
                  __CFG_WDTE$OFF 0000                            i1l111 0D21                            i1l112 0DC9  
                          i1l113 0D22                            i1l114 0D3C                            i1l202 0C0F  
                          i1l115 0DB7                            i1l203 0C2C                            i1l116 0D9C  
                          i1l204 0C55                            i1l220 00CB                            i1l117 0DA5  
                          i1l221 00D4                            i1l118 0DC4                            i1l150 0A8F  
                          i1l230 0192                            i1l222 00F5                            i1l215 05AF  
                          i1l231 01B3                            i1l223 0127                            i1l160 0A32  
                          i1l216 05AE                            i1l224 02C8                            i1l240 02A3  
                          i1l232 01E5                            i1l145 0A88                            i1l161 0A38  
                          i1l217 05AD                            i1l241 02A4                            i1l233 01E6  
                          i1l225 0128                            i1l146 0A3C                            i1l162 0A39  
                          i1l242 05AC                            i1l250 05AB                            i1l218 02C9  
                          i1l234 01F1                            i1l226 0133                            i1l147 0A45  
                          i1l171 178C                            i1l243 058E                            i1l251 0354  
                          i1l219 02A6                            i1l235 0212                            i1l227 0154  
                          i1l148 0A83                            i1l180 0ADC                            i1l260 041E  
                          i1l252 035F                            i1l244 02CA                            i1l236 0244  
                          i1l228 0186                            i1l149 0A8F                            i1l181 0AF9  
                          i1l261 043F                            i1l253 0381                            i1l245 02D3  
                          i1l237 0245                            i1l229 0187                            i1l182 0B22  
                          i1l270 050B                            i1l262 046B                            i1l254 0392  
                          i1l246 02F5                            i1l238 0250                            i1l191 0B75  
                          i1l159 0A32                            i1l271 052D                            i1l263 046C  
                          i1l255 03B3                            i1l247 0306                            i1l239 0271  
                          i1l192 0B92                            i1l272 053E                            i1l264 0477  
                          i1l256 03DF                            i1l248 0327                            i1l193 0BBB  
                          i1l273 055F                            i1l265 0499                            i1l257 03E0  
                          i1l249 0353                            i1l274 058B                            i1l266 04AE  
                          i1l258 03EB                            i1l275 058C                            i1l267 04CF  
                          i1l259 040D                            i1l268 04FB                            i1l276 05AF  
                          i1l269 0502                            _RCREG 001A             UART_Read_Text@Output 0074  
                          _SPBRG 0099                            _TXREG 0019                  _CRC8_POLYNOMIAL 0A1C  
                    ?_UART_Write 0070               __size_of_UART_Init 00ED               __size_of_UART_Read 0012  
           UART_Read_Text@length 0070                            _crc16 0CFC                            pclath 000A  
                          status 0003                            wtemp0 007E                 EEPROM_Write@data 00C4  
              __end_of_CRC8_INIT 0A1C            CONVERT_Data_5Byte@crc 0036             __size_of_EEPROM_Read 000E  
          CONVERT_Data_5Byte@txt 002A      __size_of_CONVERT_Data_5Byte 0093            CONVERT_Data_6Byte@crc 0038  
    __size_of_CONVERT_Data_6Byte 0099                  __initialization 0015            CONVERT_Data_6Byte@txt 002A  
                   __end_of_main 1000                           ??_main 00E3                           ?_crc16 0070  
                         _EEDATA 010C                           _EECON2 018D                           u110_20 17AF  
                         u110_21 17AE                           u111_20 17B7                           i1l3000 05A3  
                         u111_21 17B6                           u120_20 0DC3                           u112_20 1795  
                         u120_21 0DC2                           u112_21 1794                           i1l2500 0B55  
                         i1l1700 17BA                           i1l1710 0D1B                           i1l2510 0B82  
                         i1l2502 0B66                           i1l1702 178E                           i1l1720 0D34  
                         i1l1712 0D20                           u113_20 0D1B                           i1l2440 0A3C  
                         i1l2520 0BAA                           i1l2512 0B88                           i1l2504 0B6A  
                         i1l1704 1796                           i1l2600 0133                           u113_21 0D1A  
                         i1l1730 0DA9                           i1l1722 0D3B                           i1l1714 0D22  
                         i1l1706 0CFF                           i1l2450 0A7C                           i1l2442 0A3D  
                         i1l2530 0C04                           i1l2522 0BBF                           i1l2506 0B74  
                         i1l2514 0B92                           i1l2610 0166                           i1l2602 0149  
                         i1l1732 0DB0                           i1l1724 0D3C                           i1l1716 0D23  
                         i1l1708 0D15                           i1l2444 0A44                           i1l2452 0A83  
                         i1l2532 0C0E                           i1l2540 0C2C                           i1l2524 0BEB  
                         i1l2516 0BA2                           i1l2508 0B75                           i1l2460 05CA  
                         i1l2700 02F9                           i1l2620 0191                           i1l2612 016E  
                         i1l2604 014D                           i1l1726 0D64                           i1l1734 0DB7  
                         i1l1718 0D30                           i1l2446 0A45                           i1l2454 0A88  
                         i1l2438 0A3A                           i1l2542 0C3C                           i1l2534 0C0F  
                         i1l2526 0BEF                           i1l2470 0A93                           i1l2518 0BA6  
                         i1l1830 17DF                           i1l2462 05CE                           i1l2710 0320  
                         i1l2702 02FE                           i1l2630 01BD                           i1l2622 0192  
                         i1l2614 0178                           i1l2606 0154                           i1l2550 0072  
                         i1l1736 0DC4                           i1l1728 0D9C                           u114_20 0D3A  
                         i1l2448 0A78                           i1l2544 0C40                           i1l2536 0C1C  
                         i1l2528 0C00                           i1l2480 0ADB                           i1l2472 0AB6  
                         i1l1832 17ED                           i1l1824 175A                           u210_20 05DE  
                         i1l2464 05D4                           i1l2456 05BC                           i1l2800 0477  
                         i1l2720 0345                           i1l2704 0305                           i1l2712 0327  
                         i1l2640 01E9                           i1l2632 01C5                           i1l2624 01A8  
                         i1l2616 0187                           i1l2608 015E                           i1l2560 00A2  
                         i1l2552 0087                           u114_21 0D39                           u210_21 05DD  
                         i1l1738 0DC9                           i1l2546 0C44                           i1l2538 0C22  
                         i1l2490 0B09                           i1l2482 0ADC                           i1l2474 0ABC  
                         i1l1834 17F4                           i1l1826 175F                           i1l2466 05DE  
                         i1l2458 05BF                           i1l2810 04A6                           i1l2802 048C  
                         i1l2730 0374                           i1l2722 0354                           i1l2714 0331  
                         i1l2706 0306                           i1l2642 01F0                           i1l2650 0212  
                         i1l2634 01CD                           i1l2626 01AC                           i1l2618 018A  
                         i1l2570 00CA                           i1l2562 00AB                           i1l2554 0088  
                         i1l2492 0B0D                           i1l2484 0AE9                           i1l2476 0ACD  
                         i1l1828 17DC                           i1l2468 05E8                           i1l2812 04AD  
                         i1l2820 04CF                           i1l2804 0492                           i1l2740 0391  
                         i1l2732 037A                           i1l2724 0357                           i1l2716 0337  
                         i1l2708 031C                           i1l2660 0245                           i1l2652 021C  
                         i1l2644 01F1                           i1l2636 01D7                           i1l2628 01B3  
                         i1l2580 00EA                           i1l2572 00CB                           i1l2564 00B7  
                         i1l2556 008C                           i1l2548 005A                           i1l2494 0B11  
                         i1l2486 0AEF                           i1l2478 0AD1                           i1l1870 178C  
                         i1l1862 177F                           i1l1694 17A9                           i1l2830 04FB  
                         i1l2822 04D9                           i1l2814 04AE                           i1l2806 0499  
                         i1l2750 03BD                           i1l2742 0392                           i1l2726 035E  
                         i1l2734 0381                           i1l2718 033B                           i1l2670 026A  
                         i1l2662 0248                           i1l2654 0224                           i1l2646 0207  
                         i1l2638 01E6                           i1l2590 010F                           i1l2582 00EE  
                         i1l2574 00CC                           i1l2566 00BD                           i1l2558 0096  
                         u115_20 0D64                           i1l2488 0AF9                           i1l2496 0B26  
                         i1l1864 1783                           i1l1696 17AF                           u211_20 05E8  
                         i1l1960 0A2A                           i1l2840 0520                           i1l2832 0502  
                         i1l2824 04DF                           i1l2816 04C4                           i1l2808 04A1  
                         i1l2760 03E3                           i1l2752 03C3                           i1l2744 03A8  
                         i1l2736 0385                           i1l2728 035F                           i1l2680 0295  
                         i1l2664 024F                           i1l2672 0271                           i1l2656 022C  
                         i1l2648 020B                           i1l2592 0119                           i1l2576 00D3  
                         i1l2584 00F5                           i1l2568 00C3                           u115_21 0D63  
                         u211_21 05E7                           i1l2498 0B4F                           i1l1866 1786  
                         i1l1698 17B8                           i1l1962 0A2F                           i1l1954 0A20  
                         i1l2850 053D                           i1l2842 0526                           i1l2834 0503  
                         i1l2826 04E3                           i1l2818 04C8                           i1l2762 03EA  
                         i1l2770 040D                           i1l2754 03C7                           i1l2746 03AC  
                         i1l2738 038A                           i1l2690 02D2                           i1l2682 02A5  
                         i1l2674 027B                           i1l2666 0250                           i1l2658 0236  
                         i1l2594 0128                           i1l2586 00FF                           i1l2578 00D4  
                         i1l1868 1787                           i1l1964 0A30                           i1l1956 0A26  
                         i1l2860 0569                           i1l2852 053E                           i1l2836 050A  
                         i1l2844 052D                           i1l2828 04ED                           i1l2780 0434  
                         i1l2772 0411                           i1l2764 03EB                           i1l2756 03D1  
                         i1l2748 03B3                           i1l2692 02D3                           i1l2676 0283  
                         i1l2668 0266                           i1l2596 012B                           i1l2588 0107  
                         i1l2684 02A6                           u211_25 05E4                           i1l1958 0A29  
                         i1l2862 056F                           i1l2854 0554                           i1l2846 0531  
                         i1l2838 050B                           i1l2790 0453                           i1l2782 0438  
                         i1l2774 0416                           i1l2766 0400                           i1l2758 03E0  
                         i1l2694 02E8                           i1l2686 02CA                           i1l2678 028B  
                         i1l2598 0132                           i1l2870 058E                           u116_20 0D88  
                         u212_20 0ADA                           i1l2864 0573                           i1l2856 0558  
                         i1l2848 0536                           i1l2792 045D                           i1l2776 041D  
                         i1l2784 043F                           i1l2768 0406                           i1l2696 02EE  
                         i1l2688 02CB                           u220_20 007A                           u212_21 0AD9  
                         i1l2866 057D                           i1l2858 055F                           i1l2794 046C  
                         i1l2786 0449                           i1l2778 041E                           i1l2698 02F5  
                         i1l2868 058D                           i1l2796 046F                           i1l2788 044F  
                         u116_25 0D83                           i1l2798 0476                           u205_20 0A43  
                         u213_20 0AF8                           i1l2992 02B3                           u221_20 008C  
                         u205_21 0A42                           u213_21 0AF7                           u221_21 008B  
                         i1l2994 02B8                           i1l2996 02C3                           u117_25 0D9E  
                         i1l2998 0598                           u214_20 0B73                           u230_20 0178  
                         u222_20 00BD                           u214_21 0B72                           u230_21 0177  
                         u222_21 00BC                           u206_24 0A57                           u118_25 0DAA  
                         u206_25 0A55                           u119_20 0DB6                           u215_20 0B91  
                         u231_20 0190                           u223_20 00C3                           u119_21 0DB5  
                         u215_21 0B90                           u231_21 018F                           u223_21 00C2  
                         u207_24 0A68                           u207_25 0A66                           u208_20 0A82  
                         u216_20 0BC7                           u144_20 17FE                           u240_20 02D1  
                         u232_20 01B2                           u224_20 00C9                           u208_21 0A81  
                         u144_21 17FD                           u240_21 02D0                           u232_21 01B1  
                         u224_21 00C8                           u144_25 17FA                           u209_20 0A8E  
                         u217_20 0BDD                           u241_20 02F4                           u233_20 01D7  
                         u225_20 00D2                           _INTCON 000B                           u209_21 0A8D  
                         u241_21 02F3                           u233_21 01D6                           u225_21 00D1  
                         u218_20 0C0D                           u250_20 03E9                           u242_20 0304  
                         u234_20 01EF                           u226_20 00F4                           u218_21 0C0C  
                         u250_21 03E8                           u242_21 0303                           u234_21 01EE  
                         u226_21 00F3                           u219_20 0C2B                           u251_20 040C  
                         u243_20 0326                           u235_20 0211                           u227_20 0119  
                         u219_21 0C2A                           u251_21 040B                           u243_21 0325  
                         u235_21 0210                           u227_21 0118                           u156_20 0A38  
                         u260_20 0509                           u252_20 041C                           u244_20 0345  
                         u236_20 0236                           u228_20 0131                           u156_21 0A37  
                         u260_21 0508                           u252_21 041B                           u244_21 0344  
                         u236_21 0235                           u228_21 0130                           u261_20 052C  
                         u253_20 043E                           u245_20 035D                           u237_20 024E  
                         u229_20 0153                           u261_21 052B                           u253_21 043D  
                         u245_21 035C                           u237_21 024D                           u229_21 0152  
                         u262_20 053C                           u254_20 045D                           u246_20 0380  
                         u238_20 0270                           u262_21 053B                           u254_21 045C  
                         u246_21 037F                           u238_21 026F                           u263_20 055E  
                         u255_20 0475                           u247_20 0390                           u239_20 0295  
                         u263_21 055D                           u255_21 0474                           u247_21 038F  
                         u239_21 0294                           u264_20 057D                           u256_20 0498  
                         u248_20 03B2                           u264_21 057C                           u256_21 0497  
                         u248_21 03B1                           u257_20 04AC                           u249_20 03D1  
                         u257_21 04AB                           u249_21 03D0                           u258_20 04CE  
                         u258_21 04CD                           u259_20 04ED                           u259_21 04EC  
__size_of_UART_Write_Text_Length 0031                           _TRISC6 043E                           _TRISC7 043F  
        __size_ofi1_EEPROM_Write 001A         CONVERT_Data_11Byte@F1512 019B         CONVERT_Data_11Byte@F1514 0190  
       CONVERT_Data_11Byte@F1517 0069                   __CFG_PWRTE$OFF 0000                __end_of_UART_Init 0EB7  
              __end_of_UART_Read 17BB              __size_of_UART_Write 000E                        ??___aldiv 00CA  
                         crc16@i 0023          __size_of_UART_Read_Text 0025         CONVERT_Data_11Byte@input 0042  
        __end_of_CRC8_POLYNOMIAL 0A1E            __end_of_UART_TX_Empty 1760        __size_of_config_interrupt 0006  
                   crc16@dataLen 0070                           saved_w 007E               __end_of_CRC16_INIT 0A18  
                   crc16@crcData 0022          __end_of__initialization 0056     __size_of_CONVERT_Data_11Byte 009A  
          __size_of_EEPROM_Write 0020                   __pcstackCOMMON 0070                     __pidataBANK0 1776  
                   __pidataBANK1 176E                     __pidataBANK3 179B                    __end_of_crc16 0DCA  
         _UART_Write_Text_Length 05BC              CONVERT_Data_5Byte@i 0039              CONVERT_Data_6Byte@i 003B  
                  ?_reflect_byte 0070                    reflect_byte@i 007A                    reflect_byte@j 0079  
           ISR@crc_code_response 005D                          ??_crc16 0072                       crc16@iByte 0020  
             i1EEPROM_Write@data 0072                     _EEPROM_Write 17BB                       __pbssBANK0 0069  
                     __pbssBANK1 00A0                       __pbssBANK3 0190                 reflect_byte@byte 0070  
               reflect_byte@temp 0078                          ISR@data 0051                       __pmaintext 0EB7  
                     __pintentry 0004        UART_Write_Text_Length@str 0071                   ??_reflect_byte 0074  
                   ??_UART_Write 0070                       __stringtab 0600                   i1_EEPROM_Write 0A20  
                        ___aldiv 0C56                        _CRC8_INIT 0A1A               __end_of_UART_Write 179B  
                 _UART_Read_Text 17DB                          __ptext1 1760                          __ptext2 0DCA  
                        __ptext3 0C56                          __ptext4 17BB                          __ptext5 005A  
                        __ptext6 0A20                          __ptext7 05BC                          __ptext8 178D  
                        __ptext9 175A                     __size_of_ISR 0562                 _config_interrupt 1760  
               ___aldiv@dividend 00C6       __end_of_crc32_lookup_table 0A12                          clrloop0 1767  
           end_of_initialization 0056           __end_ofi1_EEPROM_Write 0A3A             _data_response_13byte 01A6  
                  ??_EEPROM_Read 0072       __end_of_CONVERT_Data_5Byte 0B23       __end_of_CONVERT_Data_6Byte 0BBC  
          i1EEPROM_Write@address 0070           __end_of_UART_Read_Text 1800                        _RCSTAbits 0018  
               ___aldiv@quotient 00CD                     __pstringtext 0600                        _UART_Init 0DCA  
                      _UART_Read 17A9              _CONVERT_Data_11Byte 0BBC          CONVERT_Data_5Byte@F1490 00B9  
        CONVERT_Data_5Byte@F1492 00B4          CONVERT_Data_5Byte@F1495 006D     CONVERT_Data_6Byte@output_ref 007C  
        CONVERT_Data_6Byte@F1501 00AE          CONVERT_Data_6Byte@F1503 00A8          CONVERT_Data_6Byte@F1506 006B  
                ?i1_EEPROM_Write 0070             CONVERT_Data_11Byte@i 0047          CONVERT_Data_5Byte@input 0038  
           ?_CONVERT_Data_11Byte 007C             __end_of_reflect_byte 0A90                        _TXSTAbits 0098  
        CONVERT_Data_6Byte@input 003A              __end_of_EEPROM_Read 178D                  ?_UART_Read_Text 0070  
        ?_UART_Write_Text_Length 0071                       ?_UART_Init 00D1                       ?_UART_Read 0070  
            start_initialization 0015                      __end_of_ISR 05BC            ??_CONVERT_Data_11Byte 0028  
         __size_of_UART_TX_Empty 0006                 _CRC16_POLYNOMIAL 0A18                 _CRC32_POLYNOMIAL 0A12  
 __end_of_UART_Write_Text_Length 05ED    CONVERT_Data_11Byte@output_ref 007C                       init_fetch0 05ED  
                    __pdataBANK0 0060                      __pdataBANK1 00E4                      __pdataBANK3 01A6  
              reflect_byte@index 0073                        ___latbits 0002                       ISR@address 005B  
                  __pcstackBANK0 0020                    __pcstackBANK1 00C2                         ISR@F1521 00C0  
                       ISR@F1523 00BE                         ISR@F1525 00A0      CONVERT_Data_5Byte@input_ref 002F  
         __CFG_FOSC$INTRC_CLKOUT 0000                      _EEPROM_Read 177F         __end_of_config_interrupt 1766  
                       ?___aldiv 00C2                      ??_UART_Init 00D5                      ??_UART_Read 0070  
                  _UART_TX_Empty 175A                   __size_of_crc16 00CE            __size_of_reflect_byte 0056  
                     UART_Init@x 00E1                  ___aldiv@divisor 00C2                interrupt_function 0004  
                ___aldiv@counter 00CB                  UART_Read_Text@i 0075                        clear_ram0 1766  
                       _PIE1bits 008C                         _PIR1bits 000C               _crc32_lookup_table 0612  
                       _PIR2bits 000D              _data_response_7byte 00E4              _data_response_8byte 0060  
              UART_Init@baudrate 00D1               _CONVERT_Data_5Byte 0A90               _CONVERT_Data_6Byte 0B23  
                    __stringbase 0612                   ?_UART_TX_Empty 0070                     _reflect_byte 0A3A  
   CONVERT_Data_11Byte@input_ref 0037                 ??i1_EEPROM_Write 0073              ?_CONVERT_Data_5Byte 007C  
            ?_CONVERT_Data_6Byte 007C                 ??_UART_Read_Text 0072                       _CRC16_INIT 0A16  
                     _EECON1bits 018C             ??_CONVERT_Data_5Byte 0028             ??_CONVERT_Data_6Byte 0028  
               __size_of___aldiv 00A6               __end_of__stringtab 0612                         crc16@crc 0024  
               ISR@crc_code_read 0059         __end_of_CRC16_POLYNOMIAL 0A1A         __end_of_CRC32_POLYNOMIAL 0A16  
                       __ptext10 17DB                         __ptext11 17A9                         __ptext12 177F  
                       __ptext13 0B23                         __ptext14 0A90                         __ptext15 0BBC  
                       __ptext16 0A3A                         __ptext17 0CFC                __CFG_BOR4V$BOR40V 0000  
                  ?_EEPROM_Write 00C2                    __size_of_main 0149                  ??_UART_TX_Empty 0070  
                     _INTCONbits 000B      __end_of_CONVERT_Data_11Byte 0C56                         init_ram0 05F1  
                 ??_EEPROM_Write 00C5                         intlevel1 0000      CONVERT_Data_6Byte@input_ref 0030  
                   ?_EEPROM_Read 0070                        stringcode 060A                ?_config_interrupt 0070  
             EEPROM_Read@address 0070               ??_config_interrupt 00C2     CONVERT_Data_5Byte@output_ref 007C  
   UART_Write_Text_Length@length 0073                         stringtab 0600                     ___aldiv@sign 00CC  
                     _UART_Write 178D                  UART_Write@datau 0070      UART_Write_Text_Length@count 0075  
            EEPROM_Write@address 00C2  
